ARM GAS  C:\Users\Tim\AppData\Local\Temp\cc99Hu2n.s 			page 1


   1              		.cpu cortex-m0
   2              		.fpu softvfp
   3              		.eabi_attribute 20, 1
   4              		.eabi_attribute 21, 1
   5              		.eabi_attribute 23, 3
   6              		.eabi_attribute 24, 1
   7              		.eabi_attribute 25, 1
   8              		.eabi_attribute 26, 1
   9              		.eabi_attribute 30, 1
  10              		.eabi_attribute 34, 0
  11              		.eabi_attribute 18, 4
  12              		.code	16
  13              		.file	"boardmain.c"
  14              		.text
  15              	.Ltext0:
  16              		.cfi_sections	.debug_frame
  17              		.section	.text.Board_Main,"ax",%progbits
  18              		.align	2
  19              		.global	Board_Main
  20              		.code	16
  21              		.thumb_func
  22              		.type	Board_Main, %function
  23              	Board_Main:
  24              	.LFB36:
  25              		.file 1 "..\\..\\source\\boardmain.c"
   1:..\..\source/boardmain.c **** /* ========================================
   2:..\..\source/boardmain.c ****  *
   3:..\..\source/boardmain.c ****  * Copyright YOUR COMPANY, THE YEAR
   4:..\..\source/boardmain.c ****  * All Rights Reserved
   5:..\..\source/boardmain.c ****  * UNPUBLISHED, LICENSED SOFTWARE.
   6:..\..\source/boardmain.c ****  *
   7:..\..\source/boardmain.c ****  * CONFIDENTIAL AND PROPRIETARY INFORMATION
   8:..\..\source/boardmain.c ****  * WHICH IS THE PROPERTY OF your company.
   9:..\..\source/boardmain.c ****  *
  10:..\..\source/boardmain.c ****  * ========================================
  11:..\..\source/boardmain.c **** */
  12:..\..\source/boardmain.c **** #include <stdio.h>
  13:..\..\source/boardmain.c **** #include <project.h>
  14:..\..\source/boardmain.c **** #include "control.h"
  15:..\..\source/boardmain.c **** #include "i2c.h"
  16:..\..\source/boardmain.c **** #include "pid.h"
  17:..\..\source/boardmain.c **** #include "encoder.h"
  18:..\..\source/boardmain.c **** #include "motor.h"
  19:..\..\source/boardmain.c **** #include "ultrasonic.h"
  20:..\..\source/boardmain.c **** #include "infrared.h"
  21:..\..\source/boardmain.c **** #include "time.h"
  22:..\..\source/boardmain.c **** #include "debug.h"
  23:..\..\source/boardmain.c **** 
  24:..\..\source/boardmain.c **** #define MAX_MILLIMETERS_PER_SECOND (1000)
  25:..\..\source/boardmain.c **** #define MIN_MILLIMETERS_PER_SECOND (-1000)
  26:..\..\source/boardmain.c **** 
  27:..\..\source/boardmain.c **** static int16 velocity_cmd;
  28:..\..\source/boardmain.c **** static uint32 meas_count;
  29:..\..\source/boardmain.c **** static uint16 meas_velocity;
  30:..\..\source/boardmain.c **** static uint32 last_time;
  31:..\..\source/boardmain.c **** 
  32:..\..\source/boardmain.c **** int Board_Main()
ARM GAS  C:\Users\Tim\AppData\Local\Temp\cc99Hu2n.s 			page 2


  33:..\..\source/boardmain.c **** {       
  26              		.loc 1 33 0
  27              		.cfi_startproc
  28 0000 F0B5     		push	{r4, r5, r6, r7, lr}
  29              		.cfi_def_cfa_offset 20
  30              		.cfi_offset 4, -20
  31              		.cfi_offset 5, -16
  32              		.cfi_offset 6, -12
  33              		.cfi_offset 7, -8
  34              		.cfi_offset 14, -4
  35 0002 4746     		mov	r7, r8
  36 0004 80B4     		push	{r7}
  37              		.cfi_def_cfa_offset 24
  38              		.cfi_offset 8, -24
  39 0006 86B0     		sub	sp, sp, #24
  40              		.cfi_def_cfa_offset 48
  34:..\..\source/boardmain.c ****     /* Start this right away so that we debug as soon as possible */
  35:..\..\source/boardmain.c ****     Debug_Init();
  41              		.loc 1 35 0
  42 0008 FFF7FEFF 		bl	Debug_Init
  43              	.LVL0:
  36:..\..\source/boardmain.c ****     Debug_Start();
  44              		.loc 1 36 0
  45 000c FFF7FEFF 		bl	Debug_Start
  46              	.LVL1:
  37:..\..\source/boardmain.c ****         
  38:..\..\source/boardmain.c ****     Control_Init();
  47              		.loc 1 38 0
  48 0010 FFF7FEFF 		bl	Control_Init
  49              	.LVL2:
  39:..\..\source/boardmain.c ****     Time_Init();
  50              		.loc 1 39 0
  51 0014 FFF7FEFF 		bl	Time_Init
  52              	.LVL3:
  40:..\..\source/boardmain.c ****     I2c_Init();
  53              		.loc 1 40 0
  54 0018 FFF7FEFF 		bl	I2c_Init
  55              	.LVL4:
  41:..\..\source/boardmain.c ****     Encoder_Init();
  56              		.loc 1 41 0
  57 001c FFF7FEFF 		bl	Encoder_Init
  58              	.LVL5:
  42:..\..\source/boardmain.c ****     Motor_Init();
  59              		.loc 1 42 0
  60 0020 FFF7FEFF 		bl	Motor_Init
  61              	.LVL6:
  43:..\..\source/boardmain.c **** 
  44:..\..\source/boardmain.c ****     Time_Start();
  62              		.loc 1 44 0
  63 0024 FFF7FEFF 		bl	Time_Start
  64              	.LVL7:
  45:..\..\source/boardmain.c ****     I2c_Start();
  65              		.loc 1 45 0
  66 0028 FFF7FEFF 		bl	I2c_Start
  67              	.LVL8:
  46:..\..\source/boardmain.c ****     Encoder_Start();
  68              		.loc 1 46 0
ARM GAS  C:\Users\Tim\AppData\Local\Temp\cc99Hu2n.s 			page 3


  69 002c FFF7FEFF 		bl	Encoder_Start
  70              	.LVL9:
  47:..\..\source/boardmain.c ****     Motor_Start();
  71              		.loc 1 47 0
  72 0030 FFF7FEFF 		bl	Motor_Start
  73              	.LVL10:
  48:..\..\source/boardmain.c ****     
  49:..\..\source/boardmain.c ****     Control_Start();
  74              		.loc 1 49 0
  75 0034 FFF7FEFF 		bl	Control_Start
  76              	.LVL11:
  77              	.L2:
  50:..\..\source/boardmain.c **** 
  51:..\..\source/boardmain.c ****     for(;;)
  52:..\..\source/boardmain.c ****     {
  53:..\..\source/boardmain.c **** #ifdef MOTOR_TEST
  54:..\..\source/boardmain.c ****         MotorTestDrive();
  55:..\..\source/boardmain.c **** #endif
  56:..\..\source/boardmain.c ****         I2c_ReadVelocity(&velocity_cmd);
  78              		.loc 1 56 0
  79 0038 1E4C     		ldr	r4, .L3
  80 003a 201C     		mov	r0, r4
  81 003c FFF7FEFF 		bl	I2c_ReadVelocity
  82              	.LVL12:
  57:..\..\source/boardmain.c ****         
  58:..\..\source/boardmain.c ****         PID_Update(velocity_cmd);
  83              		.loc 1 58 0
  84 0040 0023     		mov	r3, #0
  85 0042 E05E     		ldrsh	r0, [r4, r3]
  86 0044 FFF7FEFF 		bl	PID_Update
  87              	.LVL13:
  59:..\..\source/boardmain.c ****         Encoder_Update();
  88              		.loc 1 59 0
  89 0048 FFF7FEFF 		bl	Encoder_Update
  90              	.LVL14:
  60:..\..\source/boardmain.c ****         
  61:..\..\source/boardmain.c ****         meas_count = Encoder_GetCount();
  91              		.loc 1 61 0
  92 004c FFF7FEFF 		bl	Encoder_GetCount
  93              	.LVL15:
  94 0050 6060     		str	r0, [r4, #4]
  62:..\..\source/boardmain.c ****         meas_velocity = Encoder_GetVelocity();
  95              		.loc 1 62 0
  96 0052 FFF7FEFF 		bl	Encoder_GetVelocity
  97              	.LVL16:
  98 0056 85B2     		uxth	r5, r0
  99 0058 2581     		strh	r5, [r4, #8]
  63:..\..\source/boardmain.c ****         
  64:..\..\source/boardmain.c ****         COMMS_DEBUG_PRINT(0, "CV: %d, EC: %ld, MV: %d, LT: %ld\n\r", velocity_cmd, meas_count, meas
 100              		.loc 1 64 0
 101 005a 0022     		mov	r2, #0
 102 005c A35E     		ldrsh	r3, [r4, r2]
 103 005e 9846     		mov	r8, r3
 104 0060 6768     		ldr	r7, [r4, #4]
 105 0062 FFF7FEFF 		bl	millis
 106              	.LVL17:
 107 0066 144E     		ldr	r6, .L3+4
ARM GAS  C:\Users\Tim\AppData\Local\Temp\cc99Hu2n.s 			page 4


 108 0068 144B     		ldr	r3, .L3+8
 109 006a 0093     		str	r3, [sp]
 110 006c 4023     		mov	r3, #64
 111 006e 0193     		str	r3, [sp, #4]
 112 0070 4346     		mov	r3, r8
 113 0072 0293     		str	r3, [sp, #8]
 114 0074 0397     		str	r7, [sp, #12]
 115 0076 0495     		str	r5, [sp, #16]
 116 0078 E368     		ldr	r3, [r4, #12]
 117 007a C01A     		sub	r0, r0, r3
 118 007c 0590     		str	r0, [sp, #20]
 119 007e 301C     		mov	r0, r6
 120 0080 8021     		mov	r1, #128
 121 0082 4900     		lsl	r1, r1, #1
 122 0084 0E4A     		ldr	r2, .L3+12
 123 0086 0F4B     		ldr	r3, .L3+16
 124 0088 FFF7FEFF 		bl	snprintf
 125              	.LVL18:
 126 008c 301C     		mov	r0, r6
 127 008e FFF7FEFF 		bl	UARTCOMMS_UartPutString
 128              	.LVL19:
  65:..\..\source/boardmain.c ****         last_time = millis();
 129              		.loc 1 65 0
 130 0092 FFF7FEFF 		bl	millis
 131              	.LVL20:
 132 0096 E060     		str	r0, [r4, #12]
  66:..\..\source/boardmain.c ****         
  67:..\..\source/boardmain.c ****         I2c_WriteCount(meas_count);
 133              		.loc 1 67 0
 134 0098 6068     		ldr	r0, [r4, #4]
 135 009a FFF7FEFF 		bl	I2c_WriteCount
 136              	.LVL21:
  68:..\..\source/boardmain.c ****         I2c_WriteVelocity(meas_velocity);
 137              		.loc 1 68 0
 138 009e 0823     		mov	r3, #8
 139 00a0 E05E     		ldrsh	r0, [r4, r3]
 140 00a2 FFF7FEFF 		bl	I2c_WriteVelocity
 141              	.LVL22:
  69:..\..\source/boardmain.c **** 
  70:..\..\source/boardmain.c ****         Infrared_Measure();
 142              		.loc 1 70 0
 143 00a6 FFF7FEFF 		bl	Infrared_Measure
 144              	.LVL23:
  71:..\..\source/boardmain.c ****         Ultrasonic_Measure();
 145              		.loc 1 71 0
 146 00aa FFF7FEFF 		bl	Ultrasonic_Measure
 147              	.LVL24:
  72:..\..\source/boardmain.c ****         
  73:..\..\source/boardmain.c ****         Control_Update();
 148              		.loc 1 73 0
 149 00ae FFF7FEFF 		bl	Control_Update
 150              	.LVL25:
  74:..\..\source/boardmain.c ****         
  75:..\..\source/boardmain.c ****         //I2c_WriteTest();
  76:..\..\source/boardmain.c ****     }
 151              		.loc 1 76 0
 152 00b2 C1E7     		b	.L2
ARM GAS  C:\Users\Tim\AppData\Local\Temp\cc99Hu2n.s 			page 5


 153              	.L4:
 154              		.align	2
 155              	.L3:
 156 00b4 00000000 		.word	.LANCHOR0
 157 00b8 00000000 		.word	formatted_string
 158 00bc 00000000 		.word	.LANCHOR1
 159 00c0 00000000 		.word	.LC2
 160 00c4 48000000 		.word	.LC4
 161              		.cfi_endproc
 162              	.LFE36:
 163              		.size	Board_Main, .-Board_Main
 164              		.comm	formatted_string,256,4
 165              		.section	.rodata
 166              		.align	2
 167              		.set	.LANCHOR1,. + 0
 168              		.type	__func__.6957, %object
 169              		.size	__func__.6957, 11
 170              	__func__.6957:
 171 0000 426F6172 		.ascii	"Board_Main\000"
 171      645F4D61 
 171      696E00
 172 000b 00       		.section	.rodata.str1.4,"aMS",%progbits,1
 173              		.align	2
 174              	.LC2:
 175 0000 5B46494C 		.ascii	"[FILE : %s, FUNC : %s, LINE : %d]: CV: %d, EC: %ld,"
 175      45203A20 
 175      25732C20 
 175      46554E43 
 175      203A2025 
 176 0033 204D563A 		.ascii	" MV: %d, LT: %ld\012\015\000"
 176      2025642C 
 176      204C543A 
 176      20256C64 
 176      0A0D00
 177 0046 0000     		.space	2
 178              	.LC4:
 179 0048 2E2E5C2E 		.ascii	"..\\..\\source\\boardmain.c\000"
 179      2E5C736F 
 179      75726365 
 179      5C626F61 
 179      72646D61 
 180 0061 000000   		.bss
 181              		.align	2
 182              		.set	.LANCHOR0,. + 0
 183              		.type	velocity_cmd, %object
 184              		.size	velocity_cmd, 2
 185              	velocity_cmd:
 186 0000 0000     		.space	2
 187 0002 0000     		.space	2
 188              		.type	meas_count, %object
 189              		.size	meas_count, 4
 190              	meas_count:
 191 0004 00000000 		.space	4
 192              		.type	meas_velocity, %object
 193              		.size	meas_velocity, 2
 194              	meas_velocity:
 195 0008 0000     		.space	2
ARM GAS  C:\Users\Tim\AppData\Local\Temp\cc99Hu2n.s 			page 6


 196 000a 0000     		.space	2
 197              		.type	last_time, %object
 198              		.size	last_time, 4
 199              	last_time:
 200 000c 00000000 		.space	4
 201              		.text
 202              	.Letext0:
 203              		.file 2 "c:\\program files (x86)\\cypress\\psoc creator\\3.3\\psoc creator\\import\\gnu\\arm\\4.9.
 204              		.file 3 "Generated_Source\\PSoC4/cytypes.h"
 205              		.file 4 "..\\..\\source\\debug.h"
 206              		.file 5 "..\\..\\source\\control.h"
 207              		.file 6 "..\\..\\source\\time.h"
 208              		.file 7 "..\\..\\source\\i2c.h"
 209              		.file 8 "..\\..\\source\\encoder.h"
 210              		.file 9 "..\\..\\source\\motor.h"
 211              		.file 10 "..\\..\\source\\pid.h"
 212              		.file 11 "Generated_Source\\PSoC4/UARTCOMMS_SPI_UART.h"
 213              		.file 12 "..\\..\\source\\infrared.h"
 214              		.file 13 "..\\..\\source\\ultrasonic.h"
 215              		.file 14 "c:\\program files (x86)\\cypress\\psoc creator\\3.3\\psoc creator\\import\\gnu\\arm\\4.9