ARM GAS  C:\Users\Tim\AppData\Local\Temp\ccbVY2On.s 			page 1


   1              		.cpu cortex-m0
   2              		.fpu softvfp
   3              		.eabi_attribute 20, 1
   4              		.eabi_attribute 21, 1
   5              		.eabi_attribute 23, 3
   6              		.eabi_attribute 24, 1
   7              		.eabi_attribute 25, 1
   8              		.eabi_attribute 26, 1
   9              		.eabi_attribute 30, 1
  10              		.eabi_attribute 34, 0
  11              		.eabi_attribute 18, 4
  12              		.code	16
  13              		.file	"cyfitter_cfg.c"
  14              		.text
  15              	.Ltext0:
  16              		.cfi_sections	.debug_frame
  17              		.section	.text.cfg_write_bytes32,"ax",%progbits
  18              		.align	2
  19              		.code	16
  20              		.thumb_func
  21              		.type	cfg_write_bytes32, %function
  22              	cfg_write_bytes32:
  23              	.LFB4:
  24              		.file 1 ".\\Generated_Source\\PSoC4\\cyfitter_cfg.c"
   1:.\Generated_Source\PSoC4/cyfitter_cfg.c **** /*******************************************************************************
   2:.\Generated_Source\PSoC4/cyfitter_cfg.c **** * File Name: cyfitter_cfg.c
   3:.\Generated_Source\PSoC4/cyfitter_cfg.c **** * 
   4:.\Generated_Source\PSoC4/cyfitter_cfg.c **** * PSoC Creator  3.3 SP1
   5:.\Generated_Source\PSoC4/cyfitter_cfg.c **** *
   6:.\Generated_Source\PSoC4/cyfitter_cfg.c **** * Description:
   7:.\Generated_Source\PSoC4/cyfitter_cfg.c **** * This file contains device initialization code.
   8:.\Generated_Source\PSoC4/cyfitter_cfg.c **** * Except for the user defined sections in CyClockStartupError(), this file should not be modified.
   9:.\Generated_Source\PSoC4/cyfitter_cfg.c **** * This file is automatically generated by PSoC Creator.
  10:.\Generated_Source\PSoC4/cyfitter_cfg.c **** *
  11:.\Generated_Source\PSoC4/cyfitter_cfg.c **** ********************************************************************************
  12:.\Generated_Source\PSoC4/cyfitter_cfg.c **** * Copyright (c) 2007-2015 Cypress Semiconductor.  All rights reserved.
  13:.\Generated_Source\PSoC4/cyfitter_cfg.c **** * You may use this file only in accordance with the license, terms, conditions, 
  14:.\Generated_Source\PSoC4/cyfitter_cfg.c **** * disclaimers, and limitations in the end user license agreement accompanying 
  15:.\Generated_Source\PSoC4/cyfitter_cfg.c **** * the software package with which this file was provided.
  16:.\Generated_Source\PSoC4/cyfitter_cfg.c **** ********************************************************************************/
  17:.\Generated_Source\PSoC4/cyfitter_cfg.c **** 
  18:.\Generated_Source\PSoC4/cyfitter_cfg.c **** #include <string.h>
  19:.\Generated_Source\PSoC4/cyfitter_cfg.c **** #include "cytypes.h"
  20:.\Generated_Source\PSoC4/cyfitter_cfg.c **** #include "cydevice_trm.h"
  21:.\Generated_Source\PSoC4/cyfitter_cfg.c **** #include "cyfitter.h"
  22:.\Generated_Source\PSoC4/cyfitter_cfg.c **** #include "CyLib.h"
  23:.\Generated_Source\PSoC4/cyfitter_cfg.c **** #include "CyLFClk.h"
  24:.\Generated_Source\PSoC4/cyfitter_cfg.c **** #include "cyfitter_cfg.h"
  25:.\Generated_Source\PSoC4/cyfitter_cfg.c **** 
  26:.\Generated_Source\PSoC4/cyfitter_cfg.c **** 
  27:.\Generated_Source\PSoC4/cyfitter_cfg.c **** #if defined(__GNUC__) || defined(__ARMCC_VERSION)
  28:.\Generated_Source\PSoC4/cyfitter_cfg.c ****     #define CYPACKED 
  29:.\Generated_Source\PSoC4/cyfitter_cfg.c ****     #define CYPACKED_ATTR __attribute__ ((packed))
  30:.\Generated_Source\PSoC4/cyfitter_cfg.c ****     #define CYALIGNED __attribute__ ((aligned))
  31:.\Generated_Source\PSoC4/cyfitter_cfg.c ****     #define CY_CFG_UNUSED __attribute__ ((unused))
  32:.\Generated_Source\PSoC4/cyfitter_cfg.c ****     #ifndef CY_CFG_SECTION
  33:.\Generated_Source\PSoC4/cyfitter_cfg.c ****         #define CY_CFG_SECTION __attribute__ ((section(".psocinit")))
ARM GAS  C:\Users\Tim\AppData\Local\Temp\ccbVY2On.s 			page 2


  34:.\Generated_Source\PSoC4/cyfitter_cfg.c ****     #endif
  35:.\Generated_Source\PSoC4/cyfitter_cfg.c ****     
  36:.\Generated_Source\PSoC4/cyfitter_cfg.c ****     #if defined(__ARMCC_VERSION)
  37:.\Generated_Source\PSoC4/cyfitter_cfg.c ****         #define CY_CFG_MEMORY_BARRIER() __memory_changed()
  38:.\Generated_Source\PSoC4/cyfitter_cfg.c ****     #else
  39:.\Generated_Source\PSoC4/cyfitter_cfg.c ****         #define CY_CFG_MEMORY_BARRIER() __sync_synchronize()
  40:.\Generated_Source\PSoC4/cyfitter_cfg.c ****     #endif
  41:.\Generated_Source\PSoC4/cyfitter_cfg.c ****     
  42:.\Generated_Source\PSoC4/cyfitter_cfg.c **** #elif defined(__ICCARM__)
  43:.\Generated_Source\PSoC4/cyfitter_cfg.c ****     #include <intrinsics.h>
  44:.\Generated_Source\PSoC4/cyfitter_cfg.c **** 
  45:.\Generated_Source\PSoC4/cyfitter_cfg.c ****     #define CYPACKED __packed
  46:.\Generated_Source\PSoC4/cyfitter_cfg.c ****     #define CYPACKED_ATTR 
  47:.\Generated_Source\PSoC4/cyfitter_cfg.c ****     #define CYALIGNED _Pragma("data_alignment=4")
  48:.\Generated_Source\PSoC4/cyfitter_cfg.c ****     #define CY_CFG_UNUSED _Pragma("diag_suppress=Pe177")
  49:.\Generated_Source\PSoC4/cyfitter_cfg.c ****     #define CY_CFG_SECTION _Pragma("location=\".psocinit\"")
  50:.\Generated_Source\PSoC4/cyfitter_cfg.c ****     
  51:.\Generated_Source\PSoC4/cyfitter_cfg.c ****     #define CY_CFG_MEMORY_BARRIER() __DMB()
  52:.\Generated_Source\PSoC4/cyfitter_cfg.c ****     
  53:.\Generated_Source\PSoC4/cyfitter_cfg.c **** #else
  54:.\Generated_Source\PSoC4/cyfitter_cfg.c ****     #error Unsupported toolchain
  55:.\Generated_Source\PSoC4/cyfitter_cfg.c **** #endif
  56:.\Generated_Source\PSoC4/cyfitter_cfg.c **** 
  57:.\Generated_Source\PSoC4/cyfitter_cfg.c **** 
  58:.\Generated_Source\PSoC4/cyfitter_cfg.c **** CY_CFG_UNUSED
  59:.\Generated_Source\PSoC4/cyfitter_cfg.c **** static void CYMEMZERO(void *s, size_t n);
  60:.\Generated_Source\PSoC4/cyfitter_cfg.c **** CY_CFG_UNUSED
  61:.\Generated_Source\PSoC4/cyfitter_cfg.c **** static void CYMEMZERO(void *s, size_t n)
  62:.\Generated_Source\PSoC4/cyfitter_cfg.c **** {
  63:.\Generated_Source\PSoC4/cyfitter_cfg.c **** 	(void)memset(s, 0, n);
  64:.\Generated_Source\PSoC4/cyfitter_cfg.c **** }
  65:.\Generated_Source\PSoC4/cyfitter_cfg.c **** CY_CFG_UNUSED
  66:.\Generated_Source\PSoC4/cyfitter_cfg.c **** static void CYCONFIGCPY(void *dest, const void *src, size_t n);
  67:.\Generated_Source\PSoC4/cyfitter_cfg.c **** CY_CFG_UNUSED
  68:.\Generated_Source\PSoC4/cyfitter_cfg.c **** static void CYCONFIGCPY(void *dest, const void *src, size_t n)
  69:.\Generated_Source\PSoC4/cyfitter_cfg.c **** {
  70:.\Generated_Source\PSoC4/cyfitter_cfg.c **** 	(void)memcpy(dest, src, n);
  71:.\Generated_Source\PSoC4/cyfitter_cfg.c **** }
  72:.\Generated_Source\PSoC4/cyfitter_cfg.c **** CY_CFG_UNUSED
  73:.\Generated_Source\PSoC4/cyfitter_cfg.c **** static void CYCONFIGCPYCODE(void *dest, const void *src, size_t n);
  74:.\Generated_Source\PSoC4/cyfitter_cfg.c **** CY_CFG_UNUSED
  75:.\Generated_Source\PSoC4/cyfitter_cfg.c **** static void CYCONFIGCPYCODE(void *dest, const void *src, size_t n)
  76:.\Generated_Source\PSoC4/cyfitter_cfg.c **** {
  77:.\Generated_Source\PSoC4/cyfitter_cfg.c **** 	(void)memcpy(dest, src, n);
  78:.\Generated_Source\PSoC4/cyfitter_cfg.c **** }
  79:.\Generated_Source\PSoC4/cyfitter_cfg.c **** 
  80:.\Generated_Source\PSoC4/cyfitter_cfg.c **** 
  81:.\Generated_Source\PSoC4/cyfitter_cfg.c **** 
  82:.\Generated_Source\PSoC4/cyfitter_cfg.c **** /* Clock startup error codes                                                   */
  83:.\Generated_Source\PSoC4/cyfitter_cfg.c **** #define CYCLOCKSTART_NO_ERROR    0u
  84:.\Generated_Source\PSoC4/cyfitter_cfg.c **** #define CYCLOCKSTART_XTAL_ERROR  1u
  85:.\Generated_Source\PSoC4/cyfitter_cfg.c **** #define CYCLOCKSTART_32KHZ_ERROR 2u
  86:.\Generated_Source\PSoC4/cyfitter_cfg.c **** #define CYCLOCKSTART_PLL_ERROR   3u
  87:.\Generated_Source\PSoC4/cyfitter_cfg.c **** 
  88:.\Generated_Source\PSoC4/cyfitter_cfg.c **** #ifdef CY_NEED_CYCLOCKSTARTUPERROR
  89:.\Generated_Source\PSoC4/cyfitter_cfg.c **** /*******************************************************************************
  90:.\Generated_Source\PSoC4/cyfitter_cfg.c **** * Function Name: CyClockStartupError
ARM GAS  C:\Users\Tim\AppData\Local\Temp\ccbVY2On.s 			page 3


  91:.\Generated_Source\PSoC4/cyfitter_cfg.c **** ********************************************************************************
  92:.\Generated_Source\PSoC4/cyfitter_cfg.c **** * Summary:
  93:.\Generated_Source\PSoC4/cyfitter_cfg.c **** *  If an error is encountered during clock configuration (crystal startup error,
  94:.\Generated_Source\PSoC4/cyfitter_cfg.c **** *  PLL lock error, etc.), the system will end up here.  Unless reimplemented by
  95:.\Generated_Source\PSoC4/cyfitter_cfg.c **** *  the customer, this function will stop in an infinite loop.
  96:.\Generated_Source\PSoC4/cyfitter_cfg.c **** *
  97:.\Generated_Source\PSoC4/cyfitter_cfg.c **** * Parameters:
  98:.\Generated_Source\PSoC4/cyfitter_cfg.c **** *   void
  99:.\Generated_Source\PSoC4/cyfitter_cfg.c **** *
 100:.\Generated_Source\PSoC4/cyfitter_cfg.c **** * Return:
 101:.\Generated_Source\PSoC4/cyfitter_cfg.c **** *   void
 102:.\Generated_Source\PSoC4/cyfitter_cfg.c **** *
 103:.\Generated_Source\PSoC4/cyfitter_cfg.c **** *******************************************************************************/
 104:.\Generated_Source\PSoC4/cyfitter_cfg.c **** CY_CFG_UNUSED
 105:.\Generated_Source\PSoC4/cyfitter_cfg.c **** static void CyClockStartupError(uint8 errorCode);
 106:.\Generated_Source\PSoC4/cyfitter_cfg.c **** CY_CFG_UNUSED
 107:.\Generated_Source\PSoC4/cyfitter_cfg.c **** static void CyClockStartupError(uint8 errorCode)
 108:.\Generated_Source\PSoC4/cyfitter_cfg.c **** {
 109:.\Generated_Source\PSoC4/cyfitter_cfg.c ****     /* To remove the compiler warning if errorCode not used.                */
 110:.\Generated_Source\PSoC4/cyfitter_cfg.c ****     errorCode = errorCode;
 111:.\Generated_Source\PSoC4/cyfitter_cfg.c **** 
 112:.\Generated_Source\PSoC4/cyfitter_cfg.c ****     /* `#START CyClockStartupError` */
 113:.\Generated_Source\PSoC4/cyfitter_cfg.c **** 
 114:.\Generated_Source\PSoC4/cyfitter_cfg.c ****     /* If we have a clock startup error (bad MHz crystal, PLL lock, etc.),  */
 115:.\Generated_Source\PSoC4/cyfitter_cfg.c ****     /* we will end up here to allow the customer to implement something to  */
 116:.\Generated_Source\PSoC4/cyfitter_cfg.c ****     /* deal with the clock condition.                                       */
 117:.\Generated_Source\PSoC4/cyfitter_cfg.c **** 
 118:.\Generated_Source\PSoC4/cyfitter_cfg.c ****     /* `#END` */
 119:.\Generated_Source\PSoC4/cyfitter_cfg.c **** 
 120:.\Generated_Source\PSoC4/cyfitter_cfg.c ****     /* If nothing else, stop here since the clocks have not started         */
 121:.\Generated_Source\PSoC4/cyfitter_cfg.c ****     /* correctly.                                                           */
 122:.\Generated_Source\PSoC4/cyfitter_cfg.c ****     while(1) {}
 123:.\Generated_Source\PSoC4/cyfitter_cfg.c **** }
 124:.\Generated_Source\PSoC4/cyfitter_cfg.c **** #endif
 125:.\Generated_Source\PSoC4/cyfitter_cfg.c **** 
 126:.\Generated_Source\PSoC4/cyfitter_cfg.c **** #define CY_CFG_BASE_ADDR_COUNT 7u
 127:.\Generated_Source\PSoC4/cyfitter_cfg.c **** CYPACKED typedef struct
 128:.\Generated_Source\PSoC4/cyfitter_cfg.c **** {
 129:.\Generated_Source\PSoC4/cyfitter_cfg.c **** 	uint8 offset;
 130:.\Generated_Source\PSoC4/cyfitter_cfg.c **** 	uint8 value;
 131:.\Generated_Source\PSoC4/cyfitter_cfg.c **** } CYPACKED_ATTR cy_cfg_addrvalue_t;
 132:.\Generated_Source\PSoC4/cyfitter_cfg.c **** 
 133:.\Generated_Source\PSoC4/cyfitter_cfg.c **** 
 134:.\Generated_Source\PSoC4/cyfitter_cfg.c **** 
 135:.\Generated_Source\PSoC4/cyfitter_cfg.c **** /*******************************************************************************
 136:.\Generated_Source\PSoC4/cyfitter_cfg.c **** * Function Name: cfg_write_bytes32
 137:.\Generated_Source\PSoC4/cyfitter_cfg.c **** ********************************************************************************
 138:.\Generated_Source\PSoC4/cyfitter_cfg.c **** * Summary:
 139:.\Generated_Source\PSoC4/cyfitter_cfg.c **** *  This function is used for setting up the chip configuration areas that
 140:.\Generated_Source\PSoC4/cyfitter_cfg.c **** *  contain relatively sparse data.
 141:.\Generated_Source\PSoC4/cyfitter_cfg.c **** *
 142:.\Generated_Source\PSoC4/cyfitter_cfg.c **** * Parameters:
 143:.\Generated_Source\PSoC4/cyfitter_cfg.c **** *   void
 144:.\Generated_Source\PSoC4/cyfitter_cfg.c **** *
 145:.\Generated_Source\PSoC4/cyfitter_cfg.c **** * Return:
 146:.\Generated_Source\PSoC4/cyfitter_cfg.c **** *   void
 147:.\Generated_Source\PSoC4/cyfitter_cfg.c **** *
ARM GAS  C:\Users\Tim\AppData\Local\Temp\ccbVY2On.s 			page 4


 148:.\Generated_Source\PSoC4/cyfitter_cfg.c **** *******************************************************************************/
 149:.\Generated_Source\PSoC4/cyfitter_cfg.c **** static void cfg_write_bytes32(const uint32 addr_table[], const cy_cfg_addrvalue_t data_table[]);
 150:.\Generated_Source\PSoC4/cyfitter_cfg.c **** static void cfg_write_bytes32(const uint32 addr_table[], const cy_cfg_addrvalue_t data_table[])
 151:.\Generated_Source\PSoC4/cyfitter_cfg.c **** {
  25              		.loc 1 151 0
  26              		.cfi_startproc
  27              	.LVL0:
  28 0000 F0B5     		push	{r4, r5, r6, r7, lr}
  29              		.cfi_def_cfa_offset 20
  30              		.cfi_offset 4, -20
  31              		.cfi_offset 5, -16
  32              		.cfi_offset 6, -12
  33              		.cfi_offset 7, -8
  34              		.cfi_offset 14, -4
  35              	.LVL1:
 152:.\Generated_Source\PSoC4/cyfitter_cfg.c **** 	/* For 32-bit little-endian architectures */
 153:.\Generated_Source\PSoC4/cyfitter_cfg.c **** 	uint32 i, j = 0u;
  36              		.loc 1 153 0
  37 0002 0025     		mov	r5, #0
 154:.\Generated_Source\PSoC4/cyfitter_cfg.c **** 	for (i = 0u; i < CY_CFG_BASE_ADDR_COUNT; i++)
  38              		.loc 1 154 0
  39 0004 0027     		mov	r7, #0
  40 0006 11E0     		b	.L2
  41              	.LVL2:
  42              	.L5:
  43              	.LBB2:
 155:.\Generated_Source\PSoC4/cyfitter_cfg.c **** 	{
 156:.\Generated_Source\PSoC4/cyfitter_cfg.c **** 		uint32 baseAddr = addr_table[i];
  44              		.loc 1 156 0
  45 0008 BB00     		lsl	r3, r7, #2
  46 000a C658     		ldr	r6, [r0, r3]
  47              	.LVL3:
 157:.\Generated_Source\PSoC4/cyfitter_cfg.c **** 		uint8 count = (uint8)baseAddr;
  48              		.loc 1 157 0
  49 000c F3B2     		uxtb	r3, r6
  50              	.LVL4:
 158:.\Generated_Source\PSoC4/cyfitter_cfg.c **** 		baseAddr &= 0xFFFFFF00u;
  51              		.loc 1 158 0
  52 000e FF22     		mov	r2, #255
  53 0010 9643     		bic	r6, r2
  54              	.LVL5:
 159:.\Generated_Source\PSoC4/cyfitter_cfg.c **** 		while (count != 0u)
  55              		.loc 1 159 0
  56 0012 08E0     		b	.L3
  57              	.L4:
 160:.\Generated_Source\PSoC4/cyfitter_cfg.c **** 		{
 161:.\Generated_Source\PSoC4/cyfitter_cfg.c **** 			CY_SET_XTND_REG8((void CYFAR *)(baseAddr + data_table[j].offset), data_table[j].value);
  58              		.loc 1 161 0
  59 0014 6A00     		lsl	r2, r5, #1
  60 0016 8A18     		add	r2, r1, r2
  61 0018 1478     		ldrb	r4, [r2]
  62 001a A419     		add	r4, r4, r6
  63 001c 5278     		ldrb	r2, [r2, #1]
  64 001e 2270     		strb	r2, [r4]
 162:.\Generated_Source\PSoC4/cyfitter_cfg.c **** 			j++;
  65              		.loc 1 162 0
  66 0020 0135     		add	r5, r5, #1
ARM GAS  C:\Users\Tim\AppData\Local\Temp\ccbVY2On.s 			page 5


  67              	.LVL6:
 163:.\Generated_Source\PSoC4/cyfitter_cfg.c **** 			count--;
  68              		.loc 1 163 0
  69 0022 013B     		sub	r3, r3, #1
  70              	.LVL7:
  71 0024 DBB2     		uxtb	r3, r3
  72              	.LVL8:
  73              	.L3:
 159:.\Generated_Source\PSoC4/cyfitter_cfg.c **** 		{
  74              		.loc 1 159 0
  75 0026 002B     		cmp	r3, #0
  76 0028 F4D1     		bne	.L4
  77              	.LBE2:
 154:.\Generated_Source\PSoC4/cyfitter_cfg.c **** 	{
  78              		.loc 1 154 0 discriminator 2
  79 002a 0137     		add	r7, r7, #1
  80              	.LVL9:
  81              	.L2:
 154:.\Generated_Source\PSoC4/cyfitter_cfg.c **** 	{
  82              		.loc 1 154 0 is_stmt 0 discriminator 1
  83 002c 062F     		cmp	r7, #6
  84 002e EBD9     		bls	.L5
 164:.\Generated_Source\PSoC4/cyfitter_cfg.c **** 		}
 165:.\Generated_Source\PSoC4/cyfitter_cfg.c **** 	}
 166:.\Generated_Source\PSoC4/cyfitter_cfg.c **** }
  85              		.loc 1 166 0 is_stmt 1
  86              		@ sp needed
  87              	.LVL10:
  88              	.LVL11:
  89 0030 F0BD     		pop	{r4, r5, r6, r7, pc}
  90              		.cfi_endproc
  91              	.LFE4:
  92              		.size	cfg_write_bytes32, .-cfg_write_bytes32
  93 0032 C046     		.section	.text.AnalogSetDefault,"ax",%progbits
  94              		.align	2
  95              		.code	16
  96              		.thumb_func
  97              		.type	AnalogSetDefault, %function
  98              	AnalogSetDefault:
  99              	.LFB6:
 167:.\Generated_Source\PSoC4/cyfitter_cfg.c **** 
 168:.\Generated_Source\PSoC4/cyfitter_cfg.c **** 
 169:.\Generated_Source\PSoC4/cyfitter_cfg.c **** /*******************************************************************************
 170:.\Generated_Source\PSoC4/cyfitter_cfg.c **** * Function Name: ClockSetup
 171:.\Generated_Source\PSoC4/cyfitter_cfg.c **** ********************************************************************************
 172:.\Generated_Source\PSoC4/cyfitter_cfg.c **** *
 173:.\Generated_Source\PSoC4/cyfitter_cfg.c **** * Summary:
 174:.\Generated_Source\PSoC4/cyfitter_cfg.c **** *   Performs the initialization of all of the clocks in the device based on the
 175:.\Generated_Source\PSoC4/cyfitter_cfg.c **** *   settings in the Clock tab of the DWR.  This includes enabling the requested
 176:.\Generated_Source\PSoC4/cyfitter_cfg.c **** *   clocks and setting the necessary dividers to produce the desired frequency. 
 177:.\Generated_Source\PSoC4/cyfitter_cfg.c **** *
 178:.\Generated_Source\PSoC4/cyfitter_cfg.c **** * Parameters:
 179:.\Generated_Source\PSoC4/cyfitter_cfg.c **** *   void
 180:.\Generated_Source\PSoC4/cyfitter_cfg.c **** *
 181:.\Generated_Source\PSoC4/cyfitter_cfg.c **** * Return:
 182:.\Generated_Source\PSoC4/cyfitter_cfg.c **** *   void
 183:.\Generated_Source\PSoC4/cyfitter_cfg.c **** *
ARM GAS  C:\Users\Tim\AppData\Local\Temp\ccbVY2On.s 			page 6


 184:.\Generated_Source\PSoC4/cyfitter_cfg.c **** *******************************************************************************/
 185:.\Generated_Source\PSoC4/cyfitter_cfg.c **** static void ClockSetup(void);
 186:.\Generated_Source\PSoC4/cyfitter_cfg.c **** CY_CFG_SECTION
 187:.\Generated_Source\PSoC4/cyfitter_cfg.c **** static void ClockSetup(void)
 188:.\Generated_Source\PSoC4/cyfitter_cfg.c **** {
 189:.\Generated_Source\PSoC4/cyfitter_cfg.c **** 
 190:.\Generated_Source\PSoC4/cyfitter_cfg.c **** 	/* Set Flash Cycles based on max possible frequency in case a glitch occurs during ClockSetup(). *
 191:.\Generated_Source\PSoC4/cyfitter_cfg.c **** 	CY_SET_REG32((void CYXDATA *)(CYREG_CPUSS_FLASH_CTL), (0x0012u));
 192:.\Generated_Source\PSoC4/cyfitter_cfg.c **** 	/* Setup and trim IMO based on desired frequency. */
 193:.\Generated_Source\PSoC4/cyfitter_cfg.c **** 	CySysClkWriteImoFreq(48u);
 194:.\Generated_Source\PSoC4/cyfitter_cfg.c **** 	/* CYDEV_CLK_ILO_CONFIG Starting address: CYDEV_CLK_ILO_CONFIG */
 195:.\Generated_Source\PSoC4/cyfitter_cfg.c **** 	CY_SET_XTND_REG32((void CYFAR *)(CYREG_CLK_ILO_CONFIG), 0x80000006u);
 196:.\Generated_Source\PSoC4/cyfitter_cfg.c **** 
 197:.\Generated_Source\PSoC4/cyfitter_cfg.c **** 
 198:.\Generated_Source\PSoC4/cyfitter_cfg.c **** 	/* Setup phase aligned clocks */
 199:.\Generated_Source\PSoC4/cyfitter_cfg.c **** 	CY_SET_REG32((void *)CYREG_PERI_DIV_16_CTL4, 0x00002F00u);
 200:.\Generated_Source\PSoC4/cyfitter_cfg.c **** 	CY_SET_REG32((void *)CYREG_PERI_DIV_CMD, 0x8000FF44u);
 201:.\Generated_Source\PSoC4/cyfitter_cfg.c **** 	CY_SET_REG32((void *)CYREG_PERI_DIV_16_CTL3, 0x00002F00u);
 202:.\Generated_Source\PSoC4/cyfitter_cfg.c **** 	CY_SET_REG32((void *)CYREG_PERI_DIV_CMD, 0x8000FF43u);
 203:.\Generated_Source\PSoC4/cyfitter_cfg.c **** 	CY_SET_REG32((void *)CYREG_PERI_DIV_16_CTL2, 0x00002F00u);
 204:.\Generated_Source\PSoC4/cyfitter_cfg.c **** 	CY_SET_REG32((void *)CYREG_PERI_DIV_CMD, 0x8000FF42u);
 205:.\Generated_Source\PSoC4/cyfitter_cfg.c **** 	CY_SET_REG32((void *)CYREG_PERI_DIV_16_CTL1, 0x00002200u);
 206:.\Generated_Source\PSoC4/cyfitter_cfg.c **** 	CY_SET_REG32((void *)CYREG_PERI_DIV_CMD, 0x8000FF41u);
 207:.\Generated_Source\PSoC4/cyfitter_cfg.c **** 	CY_SET_REG32((void *)CYREG_PERI_DIV_16_CTL0, 0x00001D00u);
 208:.\Generated_Source\PSoC4/cyfitter_cfg.c **** 	CY_SET_REG32((void *)CYREG_PERI_DIV_CMD, 0x8000FF40u);
 209:.\Generated_Source\PSoC4/cyfitter_cfg.c **** 
 210:.\Generated_Source\PSoC4/cyfitter_cfg.c **** 	/* CYDEV_CLK_IMO_CONFIG Starting address: CYDEV_CLK_IMO_CONFIG */
 211:.\Generated_Source\PSoC4/cyfitter_cfg.c **** 	CY_SET_XTND_REG32((void CYFAR *)(CYREG_CLK_IMO_CONFIG), 0x82000000u);
 212:.\Generated_Source\PSoC4/cyfitter_cfg.c **** 
 213:.\Generated_Source\PSoC4/cyfitter_cfg.c **** 	/* CYDEV_CLK_SELECT Starting address: CYDEV_CLK_SELECT */
 214:.\Generated_Source\PSoC4/cyfitter_cfg.c **** 	CY_SET_XTND_REG32((void CYFAR *)(CYREG_CLK_SELECT), 0x00040000u);
 215:.\Generated_Source\PSoC4/cyfitter_cfg.c **** 
 216:.\Generated_Source\PSoC4/cyfitter_cfg.c **** 	/* CYDEV_PERI_PCLK_CTL12 Starting address: CYDEV_PERI_PCLK_CTL12 */
 217:.\Generated_Source\PSoC4/cyfitter_cfg.c **** 	CY_SET_XTND_REG32((void CYFAR *)(CYREG_PERI_PCLK_CTL12), 0x00000044u);
 218:.\Generated_Source\PSoC4/cyfitter_cfg.c **** 
 219:.\Generated_Source\PSoC4/cyfitter_cfg.c **** 	/* CYDEV_PERI_PCLK_CTL11 Starting address: CYDEV_PERI_PCLK_CTL11 */
 220:.\Generated_Source\PSoC4/cyfitter_cfg.c **** 	CY_SET_XTND_REG32((void CYFAR *)(CYREG_PERI_PCLK_CTL11), 0x00000043u);
 221:.\Generated_Source\PSoC4/cyfitter_cfg.c **** 
 222:.\Generated_Source\PSoC4/cyfitter_cfg.c **** 	/* CYDEV_PERI_PCLK_CTL10 Starting address: CYDEV_PERI_PCLK_CTL10 */
 223:.\Generated_Source\PSoC4/cyfitter_cfg.c **** 	CY_SET_XTND_REG32((void CYFAR *)(CYREG_PERI_PCLK_CTL10), 0x00000042u);
 224:.\Generated_Source\PSoC4/cyfitter_cfg.c **** 
 225:.\Generated_Source\PSoC4/cyfitter_cfg.c **** 	/* CYDEV_PERI_PCLK_CTL5 Starting address: CYDEV_PERI_PCLK_CTL5 */
 226:.\Generated_Source\PSoC4/cyfitter_cfg.c **** 	CY_SET_XTND_REG32((void CYFAR *)(CYREG_PERI_PCLK_CTL5), 0x00000041u);
 227:.\Generated_Source\PSoC4/cyfitter_cfg.c **** 
 228:.\Generated_Source\PSoC4/cyfitter_cfg.c **** 	/* CYDEV_PERI_PCLK_CTL2 Starting address: CYDEV_PERI_PCLK_CTL2 */
 229:.\Generated_Source\PSoC4/cyfitter_cfg.c **** 	CY_SET_XTND_REG32((void CYFAR *)(CYREG_PERI_PCLK_CTL2), 0x00000040u);
 230:.\Generated_Source\PSoC4/cyfitter_cfg.c **** 
 231:.\Generated_Source\PSoC4/cyfitter_cfg.c **** 	(void)CyIntSetVector(7u, &CySysWdtIsr);
 232:.\Generated_Source\PSoC4/cyfitter_cfg.c **** 	CyIntEnable(7u);
 233:.\Generated_Source\PSoC4/cyfitter_cfg.c **** 	CY_SET_XTND_REG32((void CYFAR *)(CYREG_WDT_CONFIG), 0x00000000u);
 234:.\Generated_Source\PSoC4/cyfitter_cfg.c **** }
 235:.\Generated_Source\PSoC4/cyfitter_cfg.c **** 
 236:.\Generated_Source\PSoC4/cyfitter_cfg.c **** 
 237:.\Generated_Source\PSoC4/cyfitter_cfg.c **** /* Analog API Functions */
 238:.\Generated_Source\PSoC4/cyfitter_cfg.c **** 
 239:.\Generated_Source\PSoC4/cyfitter_cfg.c **** 
 240:.\Generated_Source\PSoC4/cyfitter_cfg.c **** /*******************************************************************************
ARM GAS  C:\Users\Tim\AppData\Local\Temp\ccbVY2On.s 			page 7


 241:.\Generated_Source\PSoC4/cyfitter_cfg.c **** * Function Name: AnalogSetDefault
 242:.\Generated_Source\PSoC4/cyfitter_cfg.c **** ********************************************************************************
 243:.\Generated_Source\PSoC4/cyfitter_cfg.c **** *
 244:.\Generated_Source\PSoC4/cyfitter_cfg.c **** * Summary:
 245:.\Generated_Source\PSoC4/cyfitter_cfg.c **** *  Sets up the analog portions of the chip to default values based on chip
 246:.\Generated_Source\PSoC4/cyfitter_cfg.c **** *  configuration options from the project.
 247:.\Generated_Source\PSoC4/cyfitter_cfg.c **** *
 248:.\Generated_Source\PSoC4/cyfitter_cfg.c **** * Parameters:
 249:.\Generated_Source\PSoC4/cyfitter_cfg.c **** *  void
 250:.\Generated_Source\PSoC4/cyfitter_cfg.c **** *
 251:.\Generated_Source\PSoC4/cyfitter_cfg.c **** * Return:
 252:.\Generated_Source\PSoC4/cyfitter_cfg.c **** *  void
 253:.\Generated_Source\PSoC4/cyfitter_cfg.c **** *
 254:.\Generated_Source\PSoC4/cyfitter_cfg.c **** *******************************************************************************/
 255:.\Generated_Source\PSoC4/cyfitter_cfg.c **** static void AnalogSetDefault(void);
 256:.\Generated_Source\PSoC4/cyfitter_cfg.c **** static void AnalogSetDefault(void)
 257:.\Generated_Source\PSoC4/cyfitter_cfg.c **** {
 100              		.loc 1 257 0
 101              		.cfi_startproc
 258:.\Generated_Source\PSoC4/cyfitter_cfg.c **** 	CY_SET_XTND_REG32((void CYFAR *)CYREG_CTBM0_DFT_CTRL, 0x00000003u);
 102              		.loc 1 258 0
 103 0000 0323     		mov	r3, #3
 104 0002 084A     		ldr	r2, .L7
 105 0004 1360     		str	r3, [r2]
 259:.\Generated_Source\PSoC4/cyfitter_cfg.c **** 	CY_SET_XTND_REG32((void CYFAR *)CYREG_CTBM1_DFT_CTRL, 0x00000003u);
 106              		.loc 1 259 0
 107 0006 084A     		ldr	r2, .L7+4
 108 0008 1360     		str	r3, [r2]
 260:.\Generated_Source\PSoC4/cyfitter_cfg.c **** 	CY_SET_XTND_REG32((void CYFAR *)CYREG_SAR_CTRL, 0x08000000u);
 109              		.loc 1 260 0
 110 000a 8022     		mov	r2, #128
 111 000c 1205     		lsl	r2, r2, #20
 112 000e 074B     		ldr	r3, .L7+8
 113 0010 1A60     		str	r2, [r3]
 261:.\Generated_Source\PSoC4/cyfitter_cfg.c **** 	CY_SET_XTND_REG32((void CYFAR *)CYREG_SAR_MUX_SWITCH0, 0x0000000Fu);
 114              		.loc 1 261 0
 115 0012 0F23     		mov	r3, #15
 116 0014 064A     		ldr	r2, .L7+12
 117 0016 1360     		str	r3, [r2]
 262:.\Generated_Source\PSoC4/cyfitter_cfg.c **** 	CY_SET_XTND_REG32((void CYFAR *)CYREG_SAR_MUX_SWITCH_HW_CTRL, 0x0000000Fu);
 118              		.loc 1 262 0
 119 0018 064A     		ldr	r2, .L7+16
 120 001a 1360     		str	r3, [r2]
 263:.\Generated_Source\PSoC4/cyfitter_cfg.c **** 	CY_SET_XTND_REG32((void CYFAR *)CYREG_PASS_DSAB_DSAB_CTRL, 0x00000000u);
 121              		.loc 1 263 0
 122 001c 0022     		mov	r2, #0
 123 001e 064B     		ldr	r3, .L7+20
 124 0020 1A60     		str	r2, [r3]
 264:.\Generated_Source\PSoC4/cyfitter_cfg.c **** 	/* Variable VDDA is selected; no pumps are enabled by default */
 265:.\Generated_Source\PSoC4/cyfitter_cfg.c **** }
 125              		.loc 1 265 0
 126              		@ sp needed
 127 0022 7047     		bx	lr
 128              	.L8:
 129              		.align	2
 130              	.L7:
 131 0024 30003040 		.word	1076887600
ARM GAS  C:\Users\Tim\AppData\Local\Temp\ccbVY2On.s 			page 8


 132 0028 30003140 		.word	1076953136
 133 002c 00003A40 		.word	1077542912
 134 0030 00033A40 		.word	1077543680
 135 0034 40033A40 		.word	1077543744
 136 0038 000E3F40 		.word	1077874176
 137              		.cfi_endproc
 138              	.LFE6:
 139              		.size	AnalogSetDefault, .-AnalogSetDefault
 140              		.section	.text.CYMEMZERO,"ax",%progbits
 141              		.align	2
 142              		.code	16
 143              		.thumb_func
 144              		.type	CYMEMZERO, %function
 145              	CYMEMZERO:
 146              	.LFB1:
  62:.\Generated_Source\PSoC4/cyfitter_cfg.c **** 	(void)memset(s, 0, n);
 147              		.loc 1 62 0
 148              		.cfi_startproc
 149              	.LVL12:
 150 0000 08B5     		push	{r3, lr}
 151              		.cfi_def_cfa_offset 8
 152              		.cfi_offset 3, -8
 153              		.cfi_offset 14, -4
 154 0002 0A1C     		mov	r2, r1
  63:.\Generated_Source\PSoC4/cyfitter_cfg.c **** }
 155              		.loc 1 63 0
 156 0004 0021     		mov	r1, #0
 157              	.LVL13:
 158 0006 FFF7FEFF 		bl	memset
 159              	.LVL14:
  64:.\Generated_Source\PSoC4/cyfitter_cfg.c **** CY_CFG_UNUSED
 160              		.loc 1 64 0
 161              		@ sp needed
 162 000a 08BD     		pop	{r3, pc}
 163              		.cfi_endproc
 164              	.LFE1:
 165              		.size	CYMEMZERO, .-CYMEMZERO
 166              		.section	.psocinit,"ax",%progbits
 167              		.align	2
 168              		.code	16
 169              		.thumb_func
 170              		.type	ClockSetup, %function
 171              	ClockSetup:
 172              	.LFB5:
 188:.\Generated_Source\PSoC4/cyfitter_cfg.c **** 
 173              		.loc 1 188 0
 174              		.cfi_startproc
 175 0000 08B5     		push	{r3, lr}
 176              		.cfi_def_cfa_offset 8
 177              		.cfi_offset 3, -8
 178              		.cfi_offset 14, -4
 191:.\Generated_Source\PSoC4/cyfitter_cfg.c **** 	/* Setup and trim IMO based on desired frequency. */
 179              		.loc 1 191 0
 180 0002 1222     		mov	r2, #18
 181 0004 224B     		ldr	r3, .L11
 182 0006 1A60     		str	r2, [r3]
 193:.\Generated_Source\PSoC4/cyfitter_cfg.c **** 	/* CYDEV_CLK_ILO_CONFIG Starting address: CYDEV_CLK_ILO_CONFIG */
ARM GAS  C:\Users\Tim\AppData\Local\Temp\ccbVY2On.s 			page 9


 183              		.loc 1 193 0
 184 0008 3020     		mov	r0, #48
 185 000a FFF7FEFF 		bl	CySysClkWriteImoFreq
 186              	.LVL15:
 195:.\Generated_Source\PSoC4/cyfitter_cfg.c **** 
 187              		.loc 1 195 0
 188 000e 214A     		ldr	r2, .L11+4
 189 0010 214B     		ldr	r3, .L11+8
 190 0012 1A60     		str	r2, [r3]
 199:.\Generated_Source\PSoC4/cyfitter_cfg.c **** 	CY_SET_REG32((void *)CYREG_PERI_DIV_CMD, 0x8000FF44u);
 191              		.loc 1 199 0
 192 0014 BC22     		mov	r2, #188
 193 0016 9201     		lsl	r2, r2, #6
 194 0018 204B     		ldr	r3, .L11+12
 195 001a 1A60     		str	r2, [r3]
 200:.\Generated_Source\PSoC4/cyfitter_cfg.c **** 	CY_SET_REG32((void *)CYREG_PERI_DIV_16_CTL3, 0x00002F00u);
 196              		.loc 1 200 0
 197 001c 204B     		ldr	r3, .L11+16
 198 001e 2149     		ldr	r1, .L11+20
 199 0020 1960     		str	r1, [r3]
 201:.\Generated_Source\PSoC4/cyfitter_cfg.c **** 	CY_SET_REG32((void *)CYREG_PERI_DIV_CMD, 0x8000FF43u);
 200              		.loc 1 201 0
 201 0022 2149     		ldr	r1, .L11+24
 202 0024 0A60     		str	r2, [r1]
 202:.\Generated_Source\PSoC4/cyfitter_cfg.c **** 	CY_SET_REG32((void *)CYREG_PERI_DIV_16_CTL2, 0x00002F00u);
 203              		.loc 1 202 0
 204 0026 2149     		ldr	r1, .L11+28
 205 0028 1960     		str	r1, [r3]
 203:.\Generated_Source\PSoC4/cyfitter_cfg.c **** 	CY_SET_REG32((void *)CYREG_PERI_DIV_CMD, 0x8000FF42u);
 206              		.loc 1 203 0
 207 002a 2149     		ldr	r1, .L11+32
 208 002c 0A60     		str	r2, [r1]
 204:.\Generated_Source\PSoC4/cyfitter_cfg.c **** 	CY_SET_REG32((void *)CYREG_PERI_DIV_16_CTL1, 0x00002200u);
 209              		.loc 1 204 0
 210 002e 214A     		ldr	r2, .L11+36
 211 0030 1A60     		str	r2, [r3]
 205:.\Generated_Source\PSoC4/cyfitter_cfg.c **** 	CY_SET_REG32((void *)CYREG_PERI_DIV_CMD, 0x8000FF41u);
 212              		.loc 1 205 0
 213 0032 8821     		mov	r1, #136
 214 0034 8901     		lsl	r1, r1, #6
 215 0036 204A     		ldr	r2, .L11+40
 216 0038 1160     		str	r1, [r2]
 206:.\Generated_Source\PSoC4/cyfitter_cfg.c **** 	CY_SET_REG32((void *)CYREG_PERI_DIV_16_CTL0, 0x00001D00u);
 217              		.loc 1 206 0
 218 003a 204A     		ldr	r2, .L11+44
 219 003c 1A60     		str	r2, [r3]
 207:.\Generated_Source\PSoC4/cyfitter_cfg.c **** 	CY_SET_REG32((void *)CYREG_PERI_DIV_CMD, 0x8000FF40u);
 220              		.loc 1 207 0
 221 003e E821     		mov	r1, #232
 222 0040 4901     		lsl	r1, r1, #5
 223 0042 1F4A     		ldr	r2, .L11+48
 224 0044 1160     		str	r1, [r2]
 208:.\Generated_Source\PSoC4/cyfitter_cfg.c **** 
 225              		.loc 1 208 0
 226 0046 1F4A     		ldr	r2, .L11+52
 227 0048 1A60     		str	r2, [r3]
 211:.\Generated_Source\PSoC4/cyfitter_cfg.c **** 
ARM GAS  C:\Users\Tim\AppData\Local\Temp\ccbVY2On.s 			page 10


 228              		.loc 1 211 0
 229 004a 8222     		mov	r2, #130
 230 004c 1206     		lsl	r2, r2, #24
 231 004e 1E4B     		ldr	r3, .L11+56
 232 0050 1A60     		str	r2, [r3]
 214:.\Generated_Source\PSoC4/cyfitter_cfg.c **** 
 233              		.loc 1 214 0
 234 0052 8022     		mov	r2, #128
 235 0054 D202     		lsl	r2, r2, #11
 236 0056 1D4B     		ldr	r3, .L11+60
 237 0058 1A60     		str	r2, [r3]
 217:.\Generated_Source\PSoC4/cyfitter_cfg.c **** 
 238              		.loc 1 217 0
 239 005a 4422     		mov	r2, #68
 240 005c 1C4B     		ldr	r3, .L11+64
 241 005e 1A60     		str	r2, [r3]
 220:.\Generated_Source\PSoC4/cyfitter_cfg.c **** 
 242              		.loc 1 220 0
 243 0060 013A     		sub	r2, r2, #1
 244 0062 1C4B     		ldr	r3, .L11+68
 245 0064 1A60     		str	r2, [r3]
 223:.\Generated_Source\PSoC4/cyfitter_cfg.c **** 
 246              		.loc 1 223 0
 247 0066 013A     		sub	r2, r2, #1
 248 0068 1B4B     		ldr	r3, .L11+72
 249 006a 1A60     		str	r2, [r3]
 226:.\Generated_Source\PSoC4/cyfitter_cfg.c **** 
 250              		.loc 1 226 0
 251 006c 013A     		sub	r2, r2, #1
 252 006e 1B4B     		ldr	r3, .L11+76
 253 0070 1A60     		str	r2, [r3]
 229:.\Generated_Source\PSoC4/cyfitter_cfg.c **** 
 254              		.loc 1 229 0
 255 0072 013A     		sub	r2, r2, #1
 256 0074 1A4B     		ldr	r3, .L11+80
 257 0076 1A60     		str	r2, [r3]
 231:.\Generated_Source\PSoC4/cyfitter_cfg.c **** 	CyIntEnable(7u);
 258              		.loc 1 231 0
 259 0078 0720     		mov	r0, #7
 260 007a 1A49     		ldr	r1, .L11+84
 261 007c FFF7FEFF 		bl	CyIntSetVector
 262              	.LVL16:
 232:.\Generated_Source\PSoC4/cyfitter_cfg.c **** 	CY_SET_XTND_REG32((void CYFAR *)(CYREG_WDT_CONFIG), 0x00000000u);
 263              		.loc 1 232 0
 264 0080 0720     		mov	r0, #7
 265 0082 FFF7FEFF 		bl	CyIntEnable
 266              	.LVL17:
 233:.\Generated_Source\PSoC4/cyfitter_cfg.c **** }
 267              		.loc 1 233 0
 268 0086 0022     		mov	r2, #0
 269 0088 174B     		ldr	r3, .L11+88
 270 008a 1A60     		str	r2, [r3]
 234:.\Generated_Source\PSoC4/cyfitter_cfg.c **** 
 271              		.loc 1 234 0
 272              		@ sp needed
 273 008c 08BD     		pop	{r3, pc}
 274              	.L12:
ARM GAS  C:\Users\Tim\AppData\Local\Temp\ccbVY2On.s 			page 11


 275 008e C046     		.align	2
 276              	.L11:
 277 0090 30001040 		.word	1074790448
 278 0094 06000080 		.word	-2147483642
 279 0098 04010B40 		.word	1074462980
 280 009c 10030140 		.word	1073808144
 281 00a0 00000140 		.word	1073807360
 282 00a4 44FF0080 		.word	-2147418300
 283 00a8 0C030140 		.word	1073808140
 284 00ac 43FF0080 		.word	-2147418301
 285 00b0 08030140 		.word	1073808136
 286 00b4 42FF0080 		.word	-2147418302
 287 00b8 04030140 		.word	1073808132
 288 00bc 41FF0080 		.word	-2147418303
 289 00c0 00030140 		.word	1073808128
 290 00c4 40FF0080 		.word	-2147418304
 291 00c8 08010B40 		.word	1074462984
 292 00cc 00010B40 		.word	1074462976
 293 00d0 30010140 		.word	1073807664
 294 00d4 2C010140 		.word	1073807660
 295 00d8 28010140 		.word	1073807656
 296 00dc 14010140 		.word	1073807636
 297 00e0 08010140 		.word	1073807624
 298 00e4 00000000 		.word	CySysWdtIsr
 299 00e8 0C020B40 		.word	1074463244
 300              		.cfi_endproc
 301              	.LFE5:
 302              		.size	ClockSetup, .-ClockSetup
 303              		.section	.text.SetAnalogRoutingPumps,"ax",%progbits
 304              		.align	2
 305              		.global	SetAnalogRoutingPumps
 306              		.code	16
 307              		.thumb_func
 308              		.type	SetAnalogRoutingPumps, %function
 309              	SetAnalogRoutingPumps:
 310              	.LFB7:
 266:.\Generated_Source\PSoC4/cyfitter_cfg.c **** 
 267:.\Generated_Source\PSoC4/cyfitter_cfg.c **** 
 268:.\Generated_Source\PSoC4/cyfitter_cfg.c **** /*******************************************************************************
 269:.\Generated_Source\PSoC4/cyfitter_cfg.c **** * Function Name: SetAnalogRoutingPumps
 270:.\Generated_Source\PSoC4/cyfitter_cfg.c **** ********************************************************************************
 271:.\Generated_Source\PSoC4/cyfitter_cfg.c **** *
 272:.\Generated_Source\PSoC4/cyfitter_cfg.c **** * Summary:
 273:.\Generated_Source\PSoC4/cyfitter_cfg.c **** * Enables or disables the analog pumps feeding analog routing switches.
 274:.\Generated_Source\PSoC4/cyfitter_cfg.c **** * Intended to be called at startup, based on the Vdda system configuration;
 275:.\Generated_Source\PSoC4/cyfitter_cfg.c **** * may be called during operation when the user informs us that the Vdda voltage crossed the pump th
 276:.\Generated_Source\PSoC4/cyfitter_cfg.c **** *
 277:.\Generated_Source\PSoC4/cyfitter_cfg.c **** * Parameters:
 278:.\Generated_Source\PSoC4/cyfitter_cfg.c **** *  enabled - 1 to enable the pumps, 0 to disable the pumps
 279:.\Generated_Source\PSoC4/cyfitter_cfg.c **** *
 280:.\Generated_Source\PSoC4/cyfitter_cfg.c **** * Return:
 281:.\Generated_Source\PSoC4/cyfitter_cfg.c **** *  void
 282:.\Generated_Source\PSoC4/cyfitter_cfg.c **** *
 283:.\Generated_Source\PSoC4/cyfitter_cfg.c **** *******************************************************************************/
 284:.\Generated_Source\PSoC4/cyfitter_cfg.c **** void SetAnalogRoutingPumps(uint8 enabled)
 285:.\Generated_Source\PSoC4/cyfitter_cfg.c **** {
 311              		.loc 1 285 0
ARM GAS  C:\Users\Tim\AppData\Local\Temp\ccbVY2On.s 			page 12


 312              		.cfi_startproc
 313              	.LVL18:
 286:.\Generated_Source\PSoC4/cyfitter_cfg.c **** 	uint32 regValue = CY_GET_XTND_REG32((void *)(CYREG_SAR_PUMP_CTRL));
 314              		.loc 1 286 0
 315 0000 064B     		ldr	r3, .L16
 316 0002 1B68     		ldr	r3, [r3]
 317              	.LVL19:
 287:.\Generated_Source\PSoC4/cyfitter_cfg.c **** 	if (enabled != 0u)
 318              		.loc 1 287 0
 319 0004 0028     		cmp	r0, #0
 320 0006 03D0     		beq	.L14
 288:.\Generated_Source\PSoC4/cyfitter_cfg.c **** 	{
 289:.\Generated_Source\PSoC4/cyfitter_cfg.c **** 		regValue |= 0x80000000u;
 321              		.loc 1 289 0
 322 0008 8022     		mov	r2, #128
 323 000a 1206     		lsl	r2, r2, #24
 324 000c 1343     		orr	r3, r2
 325              	.LVL20:
 326 000e 01E0     		b	.L15
 327              	.L14:
 290:.\Generated_Source\PSoC4/cyfitter_cfg.c **** 	}
 291:.\Generated_Source\PSoC4/cyfitter_cfg.c **** 	else
 292:.\Generated_Source\PSoC4/cyfitter_cfg.c **** 	{
 293:.\Generated_Source\PSoC4/cyfitter_cfg.c **** 		regValue &= ~0x80000000u;
 328              		.loc 1 293 0
 329 0010 5B00     		lsl	r3, r3, #1
 330              	.LVL21:
 331 0012 5B08     		lsr	r3, r3, #1
 332              	.LVL22:
 333              	.L15:
 294:.\Generated_Source\PSoC4/cyfitter_cfg.c **** 	}
 295:.\Generated_Source\PSoC4/cyfitter_cfg.c **** 	CY_SET_XTND_REG32((void *)(CYREG_SAR_PUMP_CTRL), regValue);
 334              		.loc 1 295 0
 335 0014 014A     		ldr	r2, .L16
 336 0016 1360     		str	r3, [r2]
 296:.\Generated_Source\PSoC4/cyfitter_cfg.c **** }
 337              		.loc 1 296 0
 338              		@ sp needed
 339 0018 7047     		bx	lr
 340              	.L17:
 341 001a C046     		.align	2
 342              	.L16:
 343 001c 80033A40 		.word	1077543808
 344              		.cfi_endproc
 345              	.LFE7:
 346              		.size	SetAnalogRoutingPumps, .-SetAnalogRoutingPumps
 347              		.section	.psocinit
 348              		.align	2
 349              		.global	cyfitter_cfg
 350              		.code	16
 351              		.thumb_func
 352              		.type	cyfitter_cfg, %function
 353              	cyfitter_cfg:
 354              	.LFB8:
 297:.\Generated_Source\PSoC4/cyfitter_cfg.c **** 
 298:.\Generated_Source\PSoC4/cyfitter_cfg.c **** #define CY_AMUX_UNUSED CYREG_CM0_ROM_DWT
 299:.\Generated_Source\PSoC4/cyfitter_cfg.c **** 
ARM GAS  C:\Users\Tim\AppData\Local\Temp\ccbVY2On.s 			page 13


 300:.\Generated_Source\PSoC4/cyfitter_cfg.c **** 
 301:.\Generated_Source\PSoC4/cyfitter_cfg.c **** /*******************************************************************************
 302:.\Generated_Source\PSoC4/cyfitter_cfg.c **** * Function Name: cyfitter_cfg
 303:.\Generated_Source\PSoC4/cyfitter_cfg.c **** ********************************************************************************
 304:.\Generated_Source\PSoC4/cyfitter_cfg.c **** * Summary:
 305:.\Generated_Source\PSoC4/cyfitter_cfg.c **** *  This function is called by the start-up code for the selected device. It
 306:.\Generated_Source\PSoC4/cyfitter_cfg.c **** *  performs all of the necessary device configuration based on the design
 307:.\Generated_Source\PSoC4/cyfitter_cfg.c **** *  settings.  This includes settings from the Design Wide Resources (DWR) such
 308:.\Generated_Source\PSoC4/cyfitter_cfg.c **** *  as Clocks and Pins as well as any component configuration that is necessary.
 309:.\Generated_Source\PSoC4/cyfitter_cfg.c **** *
 310:.\Generated_Source\PSoC4/cyfitter_cfg.c **** * Parameters:  
 311:.\Generated_Source\PSoC4/cyfitter_cfg.c **** *   void
 312:.\Generated_Source\PSoC4/cyfitter_cfg.c **** *
 313:.\Generated_Source\PSoC4/cyfitter_cfg.c **** * Return:
 314:.\Generated_Source\PSoC4/cyfitter_cfg.c **** *   void
 315:.\Generated_Source\PSoC4/cyfitter_cfg.c **** *
 316:.\Generated_Source\PSoC4/cyfitter_cfg.c **** *******************************************************************************/
 317:.\Generated_Source\PSoC4/cyfitter_cfg.c **** CY_CFG_SECTION
 318:.\Generated_Source\PSoC4/cyfitter_cfg.c **** void cyfitter_cfg(void)
 319:.\Generated_Source\PSoC4/cyfitter_cfg.c **** {
 355              		.loc 1 319 0
 356              		.cfi_startproc
 357 00ec 10B5     		push	{r4, lr}
 358              		.cfi_def_cfa_offset 8
 359              		.cfi_offset 4, -8
 360              		.cfi_offset 14, -4
 320:.\Generated_Source\PSoC4/cyfitter_cfg.c **** 	/* Disable interrupts by default. Let user enable if/when they want. */
 321:.\Generated_Source\PSoC4/cyfitter_cfg.c **** 	CyGlobalIntDisable;
 361              		.loc 1 321 0
 362              	@ 321 ".\Generated_Source\PSoC4\cyfitter_cfg.c" 1
 363 00ee 72B6     		CPSID   i
 364              	@ 0 "" 2
 365              	.LVL23:
 366              		.code	16
 367              	.LBB3:
 322:.\Generated_Source\PSoC4/cyfitter_cfg.c **** 
 323:.\Generated_Source\PSoC4/cyfitter_cfg.c **** 	{
 324:.\Generated_Source\PSoC4/cyfitter_cfg.c **** 		static const uint32 CYCODE cy_cfg_addr_table[] = {
 325:.\Generated_Source\PSoC4/cyfitter_cfg.c **** 			0x400F3010u, /* Base address: 0x400F3000 Count: 16 */
 326:.\Generated_Source\PSoC4/cyfitter_cfg.c **** 			0x400F310Fu, /* Base address: 0x400F3100 Count: 15 */
 327:.\Generated_Source\PSoC4/cyfitter_cfg.c **** 			0x400F3308u, /* Base address: 0x400F3300 Count: 8 */
 328:.\Generated_Source\PSoC4/cyfitter_cfg.c **** 			0x400F4007u, /* Base address: 0x400F4000 Count: 7 */
 329:.\Generated_Source\PSoC4/cyfitter_cfg.c **** 			0x400F410Au, /* Base address: 0x400F4100 Count: 10 */
 330:.\Generated_Source\PSoC4/cyfitter_cfg.c **** 			0x400F430Du, /* Base address: 0x400F4300 Count: 13 */
 331:.\Generated_Source\PSoC4/cyfitter_cfg.c **** 			0x400F6002u, /* Base address: 0x400F6000 Count: 2 */
 332:.\Generated_Source\PSoC4/cyfitter_cfg.c **** 		};
 333:.\Generated_Source\PSoC4/cyfitter_cfg.c **** 
 334:.\Generated_Source\PSoC4/cyfitter_cfg.c **** 		static const cy_cfg_addrvalue_t CYCODE cy_cfg_data_table[] = {
 335:.\Generated_Source\PSoC4/cyfitter_cfg.c **** 			{0x3Du, 0x40u},
 336:.\Generated_Source\PSoC4/cyfitter_cfg.c **** 			{0x59u, 0x04u},
 337:.\Generated_Source\PSoC4/cyfitter_cfg.c **** 			{0x5Fu, 0x01u},
 338:.\Generated_Source\PSoC4/cyfitter_cfg.c **** 			{0x86u, 0x04u},
 339:.\Generated_Source\PSoC4/cyfitter_cfg.c **** 			{0x9Au, 0x01u},
 340:.\Generated_Source\PSoC4/cyfitter_cfg.c **** 			{0x9Eu, 0x02u},
 341:.\Generated_Source\PSoC4/cyfitter_cfg.c **** 			{0xA4u, 0x09u},
 342:.\Generated_Source\PSoC4/cyfitter_cfg.c **** 			{0xA6u, 0x06u},
 343:.\Generated_Source\PSoC4/cyfitter_cfg.c **** 			{0xAAu, 0x08u},
ARM GAS  C:\Users\Tim\AppData\Local\Temp\ccbVY2On.s 			page 14


 344:.\Generated_Source\PSoC4/cyfitter_cfg.c **** 			{0xACu, 0x0Au},
 345:.\Generated_Source\PSoC4/cyfitter_cfg.c **** 			{0xAEu, 0x05u},
 346:.\Generated_Source\PSoC4/cyfitter_cfg.c **** 			{0xB6u, 0x0Fu},
 347:.\Generated_Source\PSoC4/cyfitter_cfg.c **** 			{0xBEu, 0x40u},
 348:.\Generated_Source\PSoC4/cyfitter_cfg.c **** 			{0xD8u, 0x04u},
 349:.\Generated_Source\PSoC4/cyfitter_cfg.c **** 			{0xDBu, 0x04u},
 350:.\Generated_Source\PSoC4/cyfitter_cfg.c **** 			{0xDFu, 0x01u},
 351:.\Generated_Source\PSoC4/cyfitter_cfg.c **** 			{0x05u, 0x08u},
 352:.\Generated_Source\PSoC4/cyfitter_cfg.c **** 			{0x0Cu, 0x80u},
 353:.\Generated_Source\PSoC4/cyfitter_cfg.c **** 			{0x0Du, 0x20u},
 354:.\Generated_Source\PSoC4/cyfitter_cfg.c **** 			{0x15u, 0x40u},
 355:.\Generated_Source\PSoC4/cyfitter_cfg.c **** 			{0x17u, 0x24u},
 356:.\Generated_Source\PSoC4/cyfitter_cfg.c **** 			{0x1Fu, 0x40u},
 357:.\Generated_Source\PSoC4/cyfitter_cfg.c **** 			{0x20u, 0x01u},
 358:.\Generated_Source\PSoC4/cyfitter_cfg.c **** 			{0x6Du, 0x40u},
 359:.\Generated_Source\PSoC4/cyfitter_cfg.c **** 			{0x6Fu, 0x04u},
 360:.\Generated_Source\PSoC4/cyfitter_cfg.c **** 			{0x78u, 0x10u},
 361:.\Generated_Source\PSoC4/cyfitter_cfg.c **** 			{0x80u, 0x80u},
 362:.\Generated_Source\PSoC4/cyfitter_cfg.c **** 			{0xC0u, 0x20u},
 363:.\Generated_Source\PSoC4/cyfitter_cfg.c **** 			{0xC2u, 0xC0u},
 364:.\Generated_Source\PSoC4/cyfitter_cfg.c **** 			{0xC4u, 0xE0u},
 365:.\Generated_Source\PSoC4/cyfitter_cfg.c **** 			{0xDEu, 0x04u},
 366:.\Generated_Source\PSoC4/cyfitter_cfg.c **** 			{0x88u, 0x10u},
 367:.\Generated_Source\PSoC4/cyfitter_cfg.c **** 			{0x9Cu, 0x10u},
 368:.\Generated_Source\PSoC4/cyfitter_cfg.c **** 			{0xA9u, 0x08u},
 369:.\Generated_Source\PSoC4/cyfitter_cfg.c **** 			{0xABu, 0x20u},
 370:.\Generated_Source\PSoC4/cyfitter_cfg.c **** 			{0xAFu, 0x40u},
 371:.\Generated_Source\PSoC4/cyfitter_cfg.c **** 			{0xB4u, 0x01u},
 372:.\Generated_Source\PSoC4/cyfitter_cfg.c **** 			{0xB5u, 0x20u},
 373:.\Generated_Source\PSoC4/cyfitter_cfg.c **** 			{0xECu, 0x40u},
 374:.\Generated_Source\PSoC4/cyfitter_cfg.c **** 			{0x00u, 0x01u},
 375:.\Generated_Source\PSoC4/cyfitter_cfg.c **** 			{0x02u, 0x01u},
 376:.\Generated_Source\PSoC4/cyfitter_cfg.c **** 			{0x05u, 0x10u},
 377:.\Generated_Source\PSoC4/cyfitter_cfg.c **** 			{0x06u, 0x20u},
 378:.\Generated_Source\PSoC4/cyfitter_cfg.c **** 			{0x82u, 0x01u},
 379:.\Generated_Source\PSoC4/cyfitter_cfg.c **** 			{0xC0u, 0xF0u},
 380:.\Generated_Source\PSoC4/cyfitter_cfg.c **** 			{0xE0u, 0x20u},
 381:.\Generated_Source\PSoC4/cyfitter_cfg.c **** 			{0x4Bu, 0x10u},
 382:.\Generated_Source\PSoC4/cyfitter_cfg.c **** 			{0x93u, 0x10u},
 383:.\Generated_Source\PSoC4/cyfitter_cfg.c **** 			{0xA8u, 0x01u},
 384:.\Generated_Source\PSoC4/cyfitter_cfg.c **** 			{0xA9u, 0x10u},
 385:.\Generated_Source\PSoC4/cyfitter_cfg.c **** 			{0xAFu, 0x10u},
 386:.\Generated_Source\PSoC4/cyfitter_cfg.c **** 			{0xB6u, 0x20u},
 387:.\Generated_Source\PSoC4/cyfitter_cfg.c **** 			{0xD2u, 0x10u},
 388:.\Generated_Source\PSoC4/cyfitter_cfg.c **** 			{0xE8u, 0x80u},
 389:.\Generated_Source\PSoC4/cyfitter_cfg.c **** 			{0xEAu, 0x10u},
 390:.\Generated_Source\PSoC4/cyfitter_cfg.c **** 			{0xECu, 0x20u},
 391:.\Generated_Source\PSoC4/cyfitter_cfg.c **** 			{0x00u, 0x08u},
 392:.\Generated_Source\PSoC4/cyfitter_cfg.c **** 			{0x1Cu, 0x20u},
 393:.\Generated_Source\PSoC4/cyfitter_cfg.c **** 			{0x30u, 0x08u},
 394:.\Generated_Source\PSoC4/cyfitter_cfg.c **** 			{0x54u, 0x10u},
 395:.\Generated_Source\PSoC4/cyfitter_cfg.c **** 			{0x88u, 0x04u},
 396:.\Generated_Source\PSoC4/cyfitter_cfg.c **** 			{0xA0u, 0x08u},
 397:.\Generated_Source\PSoC4/cyfitter_cfg.c **** 			{0xB4u, 0x08u},
 398:.\Generated_Source\PSoC4/cyfitter_cfg.c **** 			{0xC0u, 0x08u},
 399:.\Generated_Source\PSoC4/cyfitter_cfg.c **** 			{0xC6u, 0x04u},
 400:.\Generated_Source\PSoC4/cyfitter_cfg.c **** 			{0xCCu, 0x02u},
ARM GAS  C:\Users\Tim\AppData\Local\Temp\ccbVY2On.s 			page 15


 401:.\Generated_Source\PSoC4/cyfitter_cfg.c **** 			{0xD4u, 0x02u},
 402:.\Generated_Source\PSoC4/cyfitter_cfg.c **** 			{0xE2u, 0x04u},
 403:.\Generated_Source\PSoC4/cyfitter_cfg.c **** 			{0xECu, 0x08u},
 404:.\Generated_Source\PSoC4/cyfitter_cfg.c **** 			{0x02u, 0x01u},
 405:.\Generated_Source\PSoC4/cyfitter_cfg.c **** 			{0x11u, 0x01u},
 406:.\Generated_Source\PSoC4/cyfitter_cfg.c **** 		};
 407:.\Generated_Source\PSoC4/cyfitter_cfg.c **** 
 408:.\Generated_Source\PSoC4/cyfitter_cfg.c **** 
 409:.\Generated_Source\PSoC4/cyfitter_cfg.c **** 
 410:.\Generated_Source\PSoC4/cyfitter_cfg.c **** 		CYPACKED typedef struct {
 411:.\Generated_Source\PSoC4/cyfitter_cfg.c **** 			void CYFAR *address;
 412:.\Generated_Source\PSoC4/cyfitter_cfg.c **** 			uint16 size;
 413:.\Generated_Source\PSoC4/cyfitter_cfg.c **** 		} CYPACKED_ATTR cfg_memset_t;
 414:.\Generated_Source\PSoC4/cyfitter_cfg.c **** 
 415:.\Generated_Source\PSoC4/cyfitter_cfg.c **** 		static const cfg_memset_t CYCODE cfg_memset_list [] = {
 416:.\Generated_Source\PSoC4/cyfitter_cfg.c **** 			/* address, size */
 417:.\Generated_Source\PSoC4/cyfitter_cfg.c **** 			{(void CYFAR *)(CYDEV_UDB_P0_U0_BASE), 1024u},
 418:.\Generated_Source\PSoC4/cyfitter_cfg.c **** 			{(void CYFAR *)(CYDEV_UDB_DSI0_BASE), 1024u},
 419:.\Generated_Source\PSoC4/cyfitter_cfg.c **** 		};
 420:.\Generated_Source\PSoC4/cyfitter_cfg.c **** 
 421:.\Generated_Source\PSoC4/cyfitter_cfg.c **** 		uint8 CYDATA i;
 422:.\Generated_Source\PSoC4/cyfitter_cfg.c **** 
 423:.\Generated_Source\PSoC4/cyfitter_cfg.c **** 		/* Zero out critical memory blocks before beginning configuration */
 424:.\Generated_Source\PSoC4/cyfitter_cfg.c **** 		for (i = 0u; i < (sizeof(cfg_memset_list)/sizeof(cfg_memset_list[0])); i++)
 368              		.loc 1 424 0
 369 00f0 0024     		mov	r4, #0
 370 00f2 10E0     		b	.L19
 371              	.LVL24:
 372              	.L20:
 373              	.LBB4:
 425:.\Generated_Source\PSoC4/cyfitter_cfg.c **** 		{
 426:.\Generated_Source\PSoC4/cyfitter_cfg.c **** 			const cfg_memset_t CYCODE * CYDATA ms = &cfg_memset_list[i];
 427:.\Generated_Source\PSoC4/cyfitter_cfg.c **** 			CYMEMZERO(ms->address, (size_t)(uint32)(ms->size));
 374              		.loc 1 427 0 discriminator 3
 375 00f4 3C48     		ldr	r0, .L21
 376 00f6 6300     		lsl	r3, r4, #1
 377 00f8 1A19     		add	r2, r3, r4
 378 00fa 5200     		lsl	r2, r2, #1
 379 00fc 8218     		add	r2, r0, r2
 380 00fe 9188     		ldrh	r1, [r2, #4]
 381 0100 1B19     		add	r3, r3, r4
 382 0102 5B00     		lsl	r3, r3, #1
 383 0104 1A5A     		ldrh	r2, [r3, r0]
 384 0106 C318     		add	r3, r0, r3
 385 0108 5888     		ldrh	r0, [r3, #2]
 386 010a 0004     		lsl	r0, r0, #16
 387 010c 1043     		orr	r0, r2
 388 010e FFF7FEFF 		bl	CYMEMZERO
 389              	.LVL25:
 390              	.LBE4:
 424:.\Generated_Source\PSoC4/cyfitter_cfg.c **** 		{
 391              		.loc 1 424 0 discriminator 3
 392 0112 0134     		add	r4, r4, #1
 393              	.LVL26:
 394 0114 E4B2     		uxtb	r4, r4
 395              	.LVL27:
 396              	.L19:
ARM GAS  C:\Users\Tim\AppData\Local\Temp\ccbVY2On.s 			page 16


 424:.\Generated_Source\PSoC4/cyfitter_cfg.c **** 		{
 397              		.loc 1 424 0 is_stmt 0 discriminator 1
 398 0116 012C     		cmp	r4, #1
 399 0118 ECD9     		bls	.L20
 428:.\Generated_Source\PSoC4/cyfitter_cfg.c **** 		}
 429:.\Generated_Source\PSoC4/cyfitter_cfg.c **** 
 430:.\Generated_Source\PSoC4/cyfitter_cfg.c **** 		cfg_write_bytes32(cy_cfg_addr_table, cy_cfg_data_table);
 400              		.loc 1 430 0 is_stmt 1
 401 011a 3349     		ldr	r1, .L21
 402 011c 081C     		mov	r0, r1
 403 011e 0C30     		add	r0, r0, #12
 404 0120 2831     		add	r1, r1, #40
 405 0122 FFF7FEFF 		bl	cfg_write_bytes32
 406              	.LVL28:
 431:.\Generated_Source\PSoC4/cyfitter_cfg.c **** 
 432:.\Generated_Source\PSoC4/cyfitter_cfg.c **** 		/* HSIOM Starting address: CYDEV_HSIOM_BASE */
 433:.\Generated_Source\PSoC4/cyfitter_cfg.c **** 		CY_SET_XTND_REG32((void CYFAR *)(CYREG_HSIOM_PORT_SEL3), 0x0000EE02u);
 407              		.loc 1 433 0
 408 0126 314A     		ldr	r2, .L21+4
 409 0128 314B     		ldr	r3, .L21+8
 410 012a 1A60     		str	r2, [r3]
 434:.\Generated_Source\PSoC4/cyfitter_cfg.c **** 		CY_SET_XTND_REG32((void CYFAR *)(CYREG_HSIOM_PORT_SEL4), 0x000000EEu);
 411              		.loc 1 434 0
 412 012c EE22     		mov	r2, #238
 413 012e 314B     		ldr	r3, .L21+12
 414 0130 1A60     		str	r2, [r3]
 435:.\Generated_Source\PSoC4/cyfitter_cfg.c **** 		CY_SET_XTND_REG32((void CYFAR *)(CYREG_HSIOM_PORT_SEL7), 0x00000099u);
 415              		.loc 1 435 0
 416 0132 553A     		sub	r2, r2, #85
 417 0134 304B     		ldr	r3, .L21+16
 418 0136 1A60     		str	r2, [r3]
 436:.\Generated_Source\PSoC4/cyfitter_cfg.c **** 
 437:.\Generated_Source\PSoC4/cyfitter_cfg.c **** 		/* UDB_PA_0 Starting address: CYDEV_UDB_PA0_BASE */
 438:.\Generated_Source\PSoC4/cyfitter_cfg.c **** 		CY_SET_XTND_REG32((void CYFAR *)(CYDEV_UDB_PA0_BASE), 0x00990004u);
 419              		.loc 1 438 0
 420 0138 304A     		ldr	r2, .L21+20
 421 013a 314B     		ldr	r3, .L21+24
 422 013c 1A60     		str	r2, [r3]
 439:.\Generated_Source\PSoC4/cyfitter_cfg.c **** 		CY_SET_XTND_REG32((void CYFAR *)(CYREG_UDB_PA0_CFG4), 0x00AA0000u);
 423              		.loc 1 439 0
 424 013e AA22     		mov	r2, #170
 425 0140 1204     		lsl	r2, r2, #16
 426 0142 304B     		ldr	r3, .L21+28
 427 0144 1A60     		str	r2, [r3]
 440:.\Generated_Source\PSoC4/cyfitter_cfg.c **** 
 441:.\Generated_Source\PSoC4/cyfitter_cfg.c **** 		/* UDB_PA_1 Starting address: CYDEV_UDB_PA1_BASE */
 442:.\Generated_Source\PSoC4/cyfitter_cfg.c **** 		CY_SET_XTND_REG32((void CYFAR *)(CYDEV_UDB_PA1_BASE), 0x00990000u);
 428              		.loc 1 442 0
 429 0146 9923     		mov	r3, #153
 430 0148 1B04     		lsl	r3, r3, #16
 431 014a 2F4A     		ldr	r2, .L21+32
 432 014c 1360     		str	r3, [r2]
 443:.\Generated_Source\PSoC4/cyfitter_cfg.c **** 
 444:.\Generated_Source\PSoC4/cyfitter_cfg.c **** 		/* UDB_PA_2 Starting address: CYDEV_UDB_PA2_BASE */
 445:.\Generated_Source\PSoC4/cyfitter_cfg.c **** 		CY_SET_XTND_REG32((void CYFAR *)(CYDEV_UDB_PA2_BASE), 0x00990000u);
 433              		.loc 1 445 0
 434 014e 2F4A     		ldr	r2, .L21+36
ARM GAS  C:\Users\Tim\AppData\Local\Temp\ccbVY2On.s 			page 17


 435 0150 1360     		str	r3, [r2]
 446:.\Generated_Source\PSoC4/cyfitter_cfg.c **** 
 447:.\Generated_Source\PSoC4/cyfitter_cfg.c **** 		/* UDB_PA_3 Starting address: CYDEV_UDB_PA3_BASE */
 448:.\Generated_Source\PSoC4/cyfitter_cfg.c **** 		CY_SET_XTND_REG32((void CYFAR *)(CYDEV_UDB_PA3_BASE), 0x00990000u);
 436              		.loc 1 448 0
 437 0152 2F4A     		ldr	r2, .L21+40
 438 0154 1360     		str	r3, [r2]
 449:.\Generated_Source\PSoC4/cyfitter_cfg.c **** 		CY_SET_XTND_REG32((void CYFAR *)(CYREG_UDB_PA3_CFG8), 0x00010000u);
 439              		.loc 1 449 0
 440 0156 8022     		mov	r2, #128
 441 0158 5202     		lsl	r2, r2, #9
 442 015a 2E4B     		ldr	r3, .L21+44
 443 015c 1A60     		str	r2, [r3]
 450:.\Generated_Source\PSoC4/cyfitter_cfg.c **** 		CY_SET_XTND_REG32((void CYFAR *)(CYREG_UDB_PA3_CFG12), 0x00000002u);
 444              		.loc 1 450 0
 445 015e 0222     		mov	r2, #2
 446 0160 2D4B     		ldr	r3, .L21+48
 447 0162 1A60     		str	r2, [r3]
 451:.\Generated_Source\PSoC4/cyfitter_cfg.c **** 
 452:.\Generated_Source\PSoC4/cyfitter_cfg.c **** 		/* TCPWM_CNT0 Starting address: CYDEV_TCPWM_CNT0_TR_CTRL0 */
 453:.\Generated_Source\PSoC4/cyfitter_cfg.c **** 		CY_SET_XTND_REG32((void CYFAR *)(CYREG_TCPWM_CNT0_TR_CTRL0), 0x000EEE1Eu);
 448              		.loc 1 453 0
 449 0164 2D49     		ldr	r1, .L21+52
 450 0166 2E4B     		ldr	r3, .L21+56
 451 0168 1960     		str	r1, [r3]
 454:.\Generated_Source\PSoC4/cyfitter_cfg.c **** 
 455:.\Generated_Source\PSoC4/cyfitter_cfg.c **** 		/* Enable digital routing */
 456:.\Generated_Source\PSoC4/cyfitter_cfg.c **** 		CY_SET_XTND_REG8((void *)CYREG_UDB_UDBIF_BANK_CTL, CY_GET_XTND_REG8((void *)CYREG_UDB_UDBIF_BANK_
 452              		.loc 1 456 0
 453 016a 2E4B     		ldr	r3, .L21+60
 454 016c 1878     		ldrb	r0, [r3]
 455 016e 0221     		mov	r1, #2
 456 0170 0143     		orr	r1, r0
 457 0172 1970     		strb	r1, [r3]
 457:.\Generated_Source\PSoC4/cyfitter_cfg.c **** 
 458:.\Generated_Source\PSoC4/cyfitter_cfg.c **** 		/* Enable UDB array */
 459:.\Generated_Source\PSoC4/cyfitter_cfg.c **** 		CY_SET_XTND_REG8((void *)CYREG_UDB_UDBIF_WAIT_CFG, (uint8)((CY_GET_XTND_REG8((void *)CYREG_UDB_UD
 458              		.loc 1 459 0
 459 0174 2C4C     		ldr	r4, .L21+64
 460              	.LVL29:
 461 0176 2178     		ldrb	r1, [r4]
 462 0178 3C20     		mov	r0, #60
 463 017a 8143     		bic	r1, r0
 464 017c 2838     		sub	r0, r0, #40
 465 017e 0143     		orr	r1, r0
 466 0180 2170     		strb	r1, [r4]
 460:.\Generated_Source\PSoC4/cyfitter_cfg.c **** 		CY_SET_XTND_REG8((void *)CYREG_UDB_UDBIF_BANK_CTL, (uint8)(CY_GET_XTND_REG8((void *)CYREG_UDB_UDB
 467              		.loc 1 460 0
 468 0182 1878     		ldrb	r0, [r3]
 469 0184 1621     		mov	r1, #22
 470 0186 0143     		orr	r1, r0
 471 0188 1970     		strb	r1, [r3]
 472              	.LBE3:
 461:.\Generated_Source\PSoC4/cyfitter_cfg.c **** 	}
 462:.\Generated_Source\PSoC4/cyfitter_cfg.c **** 
 463:.\Generated_Source\PSoC4/cyfitter_cfg.c **** 
 464:.\Generated_Source\PSoC4/cyfitter_cfg.c **** 	/* Perform second pass device configuration. These items must be configured in specific order afte
ARM GAS  C:\Users\Tim\AppData\Local\Temp\ccbVY2On.s 			page 18


 465:.\Generated_Source\PSoC4/cyfitter_cfg.c **** 	CY_SET_XTND_REG8((void CYFAR *)(CYREG_UDB_P0_U0_CFG24), 0x40u);
 473              		.loc 1 465 0
 474 018a 4021     		mov	r1, #64
 475 018c 274B     		ldr	r3, .L21+68
 476 018e 1970     		strb	r1, [r3]
 466:.\Generated_Source\PSoC4/cyfitter_cfg.c **** 	/* IOPINS0_0 Starting address: CYDEV_GPIO_PRT0_BASE */
 467:.\Generated_Source\PSoC4/cyfitter_cfg.c **** 	CY_SET_XTND_REG32((void CYFAR *)(CYREG_GPIO_PRT0_PC), 0x0000024Eu);
 477              		.loc 1 467 0
 478 0190 2749     		ldr	r1, .L21+72
 479 0192 284B     		ldr	r3, .L21+76
 480 0194 1960     		str	r1, [r3]
 468:.\Generated_Source\PSoC4/cyfitter_cfg.c **** 
 469:.\Generated_Source\PSoC4/cyfitter_cfg.c **** 	/* IOPINS0_1 Starting address: CYDEV_GPIO_PRT1_BASE */
 470:.\Generated_Source\PSoC4/cyfitter_cfg.c **** 	CY_SET_XTND_REG32((void CYFAR *)(CYDEV_GPIO_PRT1_BASE), 0x00000080u);
 481              		.loc 1 470 0
 482 0196 8023     		mov	r3, #128
 483 0198 2749     		ldr	r1, .L21+80
 484 019a 0B60     		str	r3, [r1]
 471:.\Generated_Source\PSoC4/cyfitter_cfg.c **** 	CY_SET_XTND_REG32((void CYFAR *)(CYREG_GPIO_PRT1_PC2), 0x00000080u);
 485              		.loc 1 471 0
 486 019c 2749     		ldr	r1, .L21+84
 487 019e 0B60     		str	r3, [r1]
 472:.\Generated_Source\PSoC4/cyfitter_cfg.c **** 
 473:.\Generated_Source\PSoC4/cyfitter_cfg.c **** 	/* IOPINS0_2 Starting address: CYDEV_GPIO_PRT2_BASE */
 474:.\Generated_Source\PSoC4/cyfitter_cfg.c **** 	CY_SET_XTND_REG32((void CYFAR *)(CYDEV_GPIO_PRT2_BASE), 0x0000000Fu);
 488              		.loc 1 474 0
 489 01a0 713B     		sub	r3, r3, #113
 490 01a2 2749     		ldr	r1, .L21+88
 491 01a4 0B60     		str	r3, [r1]
 475:.\Generated_Source\PSoC4/cyfitter_cfg.c **** 	CY_SET_XTND_REG32((void CYFAR *)(CYREG_GPIO_PRT2_PC2), 0x0000000Fu);
 492              		.loc 1 475 0
 493 01a6 2749     		ldr	r1, .L21+92
 494 01a8 0B60     		str	r3, [r1]
 476:.\Generated_Source\PSoC4/cyfitter_cfg.c **** 
 477:.\Generated_Source\PSoC4/cyfitter_cfg.c **** 	/* IOPINS0_3 Starting address: CYDEV_GPIO_PRT3_BASE */
 478:.\Generated_Source\PSoC4/cyfitter_cfg.c **** 	CY_SET_XTND_REG32((void CYFAR *)(CYDEV_GPIO_PRT3_BASE), 0x00000032u);
 495              		.loc 1 478 0
 496 01aa 3221     		mov	r1, #50
 497 01ac 264B     		ldr	r3, .L21+96
 498 01ae 1960     		str	r1, [r3]
 479:.\Generated_Source\PSoC4/cyfitter_cfg.c **** 	CY_SET_XTND_REG32((void CYFAR *)(CYREG_GPIO_PRT3_PC), 0x00012DB3u);
 499              		.loc 1 479 0
 500 01b0 2649     		ldr	r1, .L21+100
 501 01b2 274B     		ldr	r3, .L21+104
 502 01b4 1960     		str	r1, [r3]
 480:.\Generated_Source\PSoC4/cyfitter_cfg.c **** 	CY_SET_XTND_REG32((void CYFAR *)(CYREG_GPIO_PRT3_INTR_CFG), 0x00000F00u);
 503              		.loc 1 480 0
 504 01b6 F021     		mov	r1, #240
 505 01b8 0901     		lsl	r1, r1, #4
 506 01ba 264B     		ldr	r3, .L21+108
 507 01bc 1960     		str	r1, [r3]
 481:.\Generated_Source\PSoC4/cyfitter_cfg.c **** 
 482:.\Generated_Source\PSoC4/cyfitter_cfg.c **** 	/* IOPINS0_4 Starting address: CYDEV_GPIO_PRT4_BASE */
 483:.\Generated_Source\PSoC4/cyfitter_cfg.c **** 	CY_SET_XTND_REG32((void CYFAR *)(CYDEV_GPIO_PRT4_BASE), 0x00000003u);
 508              		.loc 1 483 0
 509 01be 0321     		mov	r1, #3
 510 01c0 254B     		ldr	r3, .L21+112
ARM GAS  C:\Users\Tim\AppData\Local\Temp\ccbVY2On.s 			page 19


 511 01c2 1960     		str	r1, [r3]
 484:.\Generated_Source\PSoC4/cyfitter_cfg.c **** 	CY_SET_XTND_REG32((void CYFAR *)(CYREG_GPIO_PRT4_PC), 0x00000024u);
 512              		.loc 1 484 0
 513 01c4 2131     		add	r1, r1, #33
 514 01c6 254B     		ldr	r3, .L21+116
 515 01c8 1960     		str	r1, [r3]
 485:.\Generated_Source\PSoC4/cyfitter_cfg.c **** 
 486:.\Generated_Source\PSoC4/cyfitter_cfg.c **** 	/* IOPINS0_5 Starting address: CYDEV_GPIO_PRT5_BASE */
 487:.\Generated_Source\PSoC4/cyfitter_cfg.c **** 	CY_SET_XTND_REG32((void CYFAR *)(CYREG_GPIO_PRT5_PC), 0x00000DB6u);
 516              		.loc 1 487 0
 517 01ca 2549     		ldr	r1, .L21+120
 518 01cc 254B     		ldr	r3, .L21+124
 519 01ce 1960     		str	r1, [r3]
 488:.\Generated_Source\PSoC4/cyfitter_cfg.c **** 
 489:.\Generated_Source\PSoC4/cyfitter_cfg.c **** 	/* IOPINS0_7 Starting address: CYDEV_GPIO_PRT7_BASE */
 490:.\Generated_Source\PSoC4/cyfitter_cfg.c **** 	CY_SET_XTND_REG32((void CYFAR *)(CYDEV_GPIO_PRT7_BASE), 0x00000002u);
 520              		.loc 1 490 0
 521 01d0 254B     		ldr	r3, .L21+128
 522 01d2 1A60     		str	r2, [r3]
 491:.\Generated_Source\PSoC4/cyfitter_cfg.c **** 	CY_SET_XTND_REG32((void CYFAR *)(CYREG_GPIO_PRT7_PC), 0x00000031u);
 523              		.loc 1 491 0
 524 01d4 3121     		mov	r1, #49
 525 01d6 254B     		ldr	r3, .L21+132
 526 01d8 1960     		str	r1, [r3]
 492:.\Generated_Source\PSoC4/cyfitter_cfg.c **** 	CY_SET_XTND_REG32((void CYFAR *)(CYREG_GPIO_PRT7_PC2), 0x00000002u);
 527              		.loc 1 492 0
 528 01da 254B     		ldr	r3, .L21+136
 529 01dc 1A60     		str	r2, [r3]
 493:.\Generated_Source\PSoC4/cyfitter_cfg.c **** 
 494:.\Generated_Source\PSoC4/cyfitter_cfg.c **** 
 495:.\Generated_Source\PSoC4/cyfitter_cfg.c **** 	/* Setup clocks based on selections from Clock DWR */
 496:.\Generated_Source\PSoC4/cyfitter_cfg.c **** 	ClockSetup();
 530              		.loc 1 496 0
 531 01de FFF70FFF 		bl	ClockSetup
 532              	.LVL30:
 497:.\Generated_Source\PSoC4/cyfitter_cfg.c **** 
 498:.\Generated_Source\PSoC4/cyfitter_cfg.c **** 	/* Perform basic analog initialization to defaults */
 499:.\Generated_Source\PSoC4/cyfitter_cfg.c **** 	AnalogSetDefault();
 533              		.loc 1 499 0
 534 01e2 FFF7FEFF 		bl	AnalogSetDefault
 535              	.LVL31:
 500:.\Generated_Source\PSoC4/cyfitter_cfg.c **** 
 501:.\Generated_Source\PSoC4/cyfitter_cfg.c **** }
 536              		.loc 1 501 0
 537              		@ sp needed
 538 01e6 10BD     		pop	{r4, pc}
 539              	.L22:
 540              		.align	2
 541              	.L21:
 542 01e8 00000000 		.word	.LANCHOR0
 543 01ec 02EE0000 		.word	60930
 544 01f0 00030240 		.word	1073873664
 545 01f4 00040240 		.word	1073873920
 546 01f8 00070240 		.word	1073874688
 547 01fc 04009900 		.word	10027012
 548 0200 00500F40 		.word	1074745344
 549 0204 04500F40 		.word	1074745348
ARM GAS  C:\Users\Tim\AppData\Local\Temp\ccbVY2On.s 			page 20


 550 0208 10500F40 		.word	1074745360
 551 020c 20500F40 		.word	1074745376
 552 0210 30500F40 		.word	1074745392
 553 0214 38500F40 		.word	1074745400
 554 0218 3C500F40 		.word	1074745404
 555 021c 1EEE0E00 		.word	978462
 556 0220 20012040 		.word	1075839264
 557 0224 00700F40 		.word	1074753536
 558 0228 01700F40 		.word	1074753537
 559 022c 58300F40 		.word	1074737240
 560 0230 4E020000 		.word	590
 561 0234 08000440 		.word	1074003976
 562 0238 00010440 		.word	1074004224
 563 023c 18010440 		.word	1074004248
 564 0240 00020440 		.word	1074004480
 565 0244 18020440 		.word	1074004504
 566 0248 00030440 		.word	1074004736
 567 024c B32D0100 		.word	77235
 568 0250 08030440 		.word	1074004744
 569 0254 0C030440 		.word	1074004748
 570 0258 00040440 		.word	1074004992
 571 025c 08040440 		.word	1074005000
 572 0260 B60D0000 		.word	3510
 573 0264 08050440 		.word	1074005256
 574 0268 00070440 		.word	1074005760
 575 026c 08070440 		.word	1074005768
 576 0270 18070440 		.word	1074005784
 577              		.cfi_endproc
 578              	.LFE8:
 579              		.size	cyfitter_cfg, .-cyfitter_cfg
 580              		.section	.rodata
 581              		.align	2
 582              		.set	.LANCHOR0,. + 0
 583              		.type	cfg_memset_list.4775, %object
 584              		.size	cfg_memset_list.4775, 12
 585              	cfg_memset_list.4775:
 586 0000 00300F40 		.word	1074737152
 587 0004 0004     		.short	1024
 588 0006 00400F40 		.4byte	1074741248
 589 000a 0004     		.short	1024
 590              		.type	cy_cfg_addr_table.4769, %object
 591              		.size	cy_cfg_addr_table.4769, 28
 592              	cy_cfg_addr_table.4769:
 593 000c 10300F40 		.word	1074737168
 594 0010 0F310F40 		.word	1074737423
 595 0014 08330F40 		.word	1074737928
 596 0018 07400F40 		.word	1074741255
 597 001c 0A410F40 		.word	1074741514
 598 0020 0D430F40 		.word	1074742029
 599 0024 02600F40 		.word	1074749442
 600              		.type	cy_cfg_data_table.4770, %object
 601              		.size	cy_cfg_data_table.4770, 142
 602              	cy_cfg_data_table.4770:
 603 0028 3D       		.byte	61
 604 0029 40       		.byte	64
 605 002a 59       		.byte	89
 606 002b 04       		.byte	4
ARM GAS  C:\Users\Tim\AppData\Local\Temp\ccbVY2On.s 			page 21


 607 002c 5F       		.byte	95
 608 002d 01       		.byte	1
 609 002e 86       		.byte	-122
 610 002f 04       		.byte	4
 611 0030 9A       		.byte	-102
 612 0031 01       		.byte	1
 613 0032 9E       		.byte	-98
 614 0033 02       		.byte	2
 615 0034 A4       		.byte	-92
 616 0035 09       		.byte	9
 617 0036 A6       		.byte	-90
 618 0037 06       		.byte	6
 619 0038 AA       		.byte	-86
 620 0039 08       		.byte	8
 621 003a AC       		.byte	-84
 622 003b 0A       		.byte	10
 623 003c AE       		.byte	-82
 624 003d 05       		.byte	5
 625 003e B6       		.byte	-74
 626 003f 0F       		.byte	15
 627 0040 BE       		.byte	-66
 628 0041 40       		.byte	64
 629 0042 D8       		.byte	-40
 630 0043 04       		.byte	4
 631 0044 DB       		.byte	-37
 632 0045 04       		.byte	4
 633 0046 DF       		.byte	-33
 634 0047 01       		.byte	1
 635 0048 05       		.byte	5
 636 0049 08       		.byte	8
 637 004a 0C       		.byte	12
 638 004b 80       		.byte	-128
 639 004c 0D       		.byte	13
 640 004d 20       		.byte	32
 641 004e 15       		.byte	21
 642 004f 40       		.byte	64
 643 0050 17       		.byte	23
 644 0051 24       		.byte	36
 645 0052 1F       		.byte	31
 646 0053 40       		.byte	64
 647 0054 20       		.byte	32
 648 0055 01       		.byte	1
 649 0056 6D       		.byte	109
 650 0057 40       		.byte	64
 651 0058 6F       		.byte	111
 652 0059 04       		.byte	4
 653 005a 78       		.byte	120
 654 005b 10       		.byte	16
 655 005c 80       		.byte	-128
 656 005d 80       		.byte	-128
 657 005e C0       		.byte	-64
 658 005f 20       		.byte	32
 659 0060 C2       		.byte	-62
 660 0061 C0       		.byte	-64
 661 0062 C4       		.byte	-60
 662 0063 E0       		.byte	-32
 663 0064 DE       		.byte	-34
ARM GAS  C:\Users\Tim\AppData\Local\Temp\ccbVY2On.s 			page 22


 664 0065 04       		.byte	4
 665 0066 88       		.byte	-120
 666 0067 10       		.byte	16
 667 0068 9C       		.byte	-100
 668 0069 10       		.byte	16
 669 006a A9       		.byte	-87
 670 006b 08       		.byte	8
 671 006c AB       		.byte	-85
 672 006d 20       		.byte	32
 673 006e AF       		.byte	-81
 674 006f 40       		.byte	64
 675 0070 B4       		.byte	-76
 676 0071 01       		.byte	1
 677 0072 B5       		.byte	-75
 678 0073 20       		.byte	32
 679 0074 EC       		.byte	-20
 680 0075 40       		.byte	64
 681 0076 00       		.byte	0
 682 0077 01       		.byte	1
 683 0078 02       		.byte	2
 684 0079 01       		.byte	1
 685 007a 05       		.byte	5
 686 007b 10       		.byte	16
 687 007c 06       		.byte	6
 688 007d 20       		.byte	32
 689 007e 82       		.byte	-126
 690 007f 01       		.byte	1
 691 0080 C0       		.byte	-64
 692 0081 F0       		.byte	-16
 693 0082 E0       		.byte	-32
 694 0083 20       		.byte	32
 695 0084 4B       		.byte	75
 696 0085 10       		.byte	16
 697 0086 93       		.byte	-109
 698 0087 10       		.byte	16
 699 0088 A8       		.byte	-88
 700 0089 01       		.byte	1
 701 008a A9       		.byte	-87
 702 008b 10       		.byte	16
 703 008c AF       		.byte	-81
 704 008d 10       		.byte	16
 705 008e B6       		.byte	-74
 706 008f 20       		.byte	32
 707 0090 D2       		.byte	-46
 708 0091 10       		.byte	16
 709 0092 E8       		.byte	-24
 710 0093 80       		.byte	-128
 711 0094 EA       		.byte	-22
 712 0095 10       		.byte	16
 713 0096 EC       		.byte	-20
 714 0097 20       		.byte	32
 715 0098 00       		.byte	0
 716 0099 08       		.byte	8
 717 009a 1C       		.byte	28
 718 009b 20       		.byte	32
 719 009c 30       		.byte	48
 720 009d 08       		.byte	8
ARM GAS  C:\Users\Tim\AppData\Local\Temp\ccbVY2On.s 			page 23


 721 009e 54       		.byte	84
 722 009f 10       		.byte	16
 723 00a0 88       		.byte	-120
 724 00a1 04       		.byte	4
 725 00a2 A0       		.byte	-96
 726 00a3 08       		.byte	8
 727 00a4 B4       		.byte	-76
 728 00a5 08       		.byte	8
 729 00a6 C0       		.byte	-64
 730 00a7 08       		.byte	8
 731 00a8 C6       		.byte	-58
 732 00a9 04       		.byte	4
 733 00aa CC       		.byte	-52
 734 00ab 02       		.byte	2
 735 00ac D4       		.byte	-44
 736 00ad 02       		.byte	2
 737 00ae E2       		.byte	-30
 738 00af 04       		.byte	4
 739 00b0 EC       		.byte	-20
 740 00b1 08       		.byte	8
 741 00b2 02       		.byte	2
 742 00b3 01       		.byte	1
 743 00b4 11       		.byte	17
 744 00b5 01       		.byte	1
 745 00b6 0000     		.text
 746              	.Letext0:
 747              		.file 2 "c:\\program files (x86)\\cypress\\psoc creator\\3.3\\psoc creator\\import\\gnu\\arm\\4.9.
 748              		.file 3 ".\\Generated_Source\\PSoC4\\cytypes.h"
 749              		.file 4 ".\\Generated_Source\\PSoC4\\CyLib.h"