ARM GAS  C:\Users\Tim\AppData\Local\Temp\cc4ChIIk.s 			page 1


   1              		.cpu cortex-m0
   2              		.fpu softvfp
   3              		.eabi_attribute 20, 1
   4              		.eabi_attribute 21, 1
   5              		.eabi_attribute 23, 3
   6              		.eabi_attribute 24, 1
   7              		.eabi_attribute 25, 1
   8              		.eabi_attribute 26, 1
   9              		.eabi_attribute 30, 1
  10              		.eabi_attribute 34, 0
  11              		.eabi_attribute 18, 4
  12              		.code	16
  13              		.file	"CyLFClk.c"
  14              		.text
  15              	.Ltext0:
  16              		.cfi_sections	.debug_frame
  17              		.section	.text.CySysClkIloEnabled,"ax",%progbits
  18              		.align	2
  19              		.code	16
  20              		.thumb_func
  21              		.type	CySysClkIloEnabled, %function
  22              	CySysClkIloEnabled:
  23              	.LFB3:
  24              		.file 1 ".\\Generated_Source\\PSoC4\\CyLFClk.c"
   1:.\Generated_Source\PSoC4/CyLFClk.c **** /*******************************************************************************
   2:.\Generated_Source\PSoC4/CyLFClk.c **** * File Name: .c
   3:.\Generated_Source\PSoC4/CyLFClk.c **** * Version 1.0
   4:.\Generated_Source\PSoC4/CyLFClk.c **** *
   5:.\Generated_Source\PSoC4/CyLFClk.c **** * Description:
   6:.\Generated_Source\PSoC4/CyLFClk.c **** *  This file provides the source code to API for the cy_lfclk Component.
   7:.\Generated_Source\PSoC4/CyLFClk.c **** *
   8:.\Generated_Source\PSoC4/CyLFClk.c **** ********************************************************************************
   9:.\Generated_Source\PSoC4/CyLFClk.c **** * Copyright 2008-2015, Cypress Semiconductor Corporation.  All rights reserved.
  10:.\Generated_Source\PSoC4/CyLFClk.c **** * You may use this file only in accordance with the license, terms, conditions,
  11:.\Generated_Source\PSoC4/CyLFClk.c **** * disclaimers, and limitations in the end user license agreement accompanying
  12:.\Generated_Source\PSoC4/CyLFClk.c **** * the software package with which this file was provided.
  13:.\Generated_Source\PSoC4/CyLFClk.c **** *******************************************************************************/
  14:.\Generated_Source\PSoC4/CyLFClk.c **** 
  15:.\Generated_Source\PSoC4/CyLFClk.c **** 
  16:.\Generated_Source\PSoC4/CyLFClk.c **** #include "CyLFClk.h"
  17:.\Generated_Source\PSoC4/CyLFClk.c **** #include "CyLib.h"
  18:.\Generated_Source\PSoC4/CyLFClk.c **** 
  19:.\Generated_Source\PSoC4/CyLFClk.c **** 
  20:.\Generated_Source\PSoC4/CyLFClk.c **** #if (CY_IP_WCO)
  21:.\Generated_Source\PSoC4/CyLFClk.c ****     static uint32 CySysClkGetLfclkSource(void);
  22:.\Generated_Source\PSoC4/CyLFClk.c **** #endif /* (CY_IP_WCO) */
  23:.\Generated_Source\PSoC4/CyLFClk.c **** 
  24:.\Generated_Source\PSoC4/CyLFClk.c **** #if(CY_IP_SRSSV2)
  25:.\Generated_Source\PSoC4/CyLFClk.c ****     /* CySysClkLfclkPosedgeCatch() / CySysClkLfclkPosedgeRestore() */
  26:.\Generated_Source\PSoC4/CyLFClk.c ****     static uint32 lfclkPosedgeWdtCounter0Enabled = 0u;
  27:.\Generated_Source\PSoC4/CyLFClk.c ****     static uint32 lfclkPosedgeWdtCounter0Mode    = CY_SYS_WDT_MODE_NONE;
  28:.\Generated_Source\PSoC4/CyLFClk.c **** 
  29:.\Generated_Source\PSoC4/CyLFClk.c ****     static volatile uint32 disableServicedIsr = 0uL;
  30:.\Generated_Source\PSoC4/CyLFClk.c ****     static volatile uint32 wdtIsrMask = CY_SYS_WDT_COUNTER0_INT |\
  31:.\Generated_Source\PSoC4/CyLFClk.c ****                                         CY_SYS_WDT_COUNTER1_INT |\
  32:.\Generated_Source\PSoC4/CyLFClk.c ****                                         CY_SYS_WDT_COUNTER2_INT;
  33:.\Generated_Source\PSoC4/CyLFClk.c **** 
ARM GAS  C:\Users\Tim\AppData\Local\Temp\cc4ChIIk.s 			page 2


  34:.\Generated_Source\PSoC4/CyLFClk.c ****     static const uint32 counterIntMaskTbl[CY_WDT_NUM_OF_WDT] = {CY_SYS_WDT_COUNTER0_INT,
  35:.\Generated_Source\PSoC4/CyLFClk.c ****                                                                 CY_SYS_WDT_COUNTER1_INT,
  36:.\Generated_Source\PSoC4/CyLFClk.c ****                                                                 CY_SYS_WDT_COUNTER2_INT};
  37:.\Generated_Source\PSoC4/CyLFClk.c **** 
  38:.\Generated_Source\PSoC4/CyLFClk.c ****     static void CySysClkLfclkPosedgeCatch(void);
  39:.\Generated_Source\PSoC4/CyLFClk.c ****     static void CySysClkLfclkPosedgeRestore(void);
  40:.\Generated_Source\PSoC4/CyLFClk.c **** 
  41:.\Generated_Source\PSoC4/CyLFClk.c ****     static uint32 CySysWdtLocked(void);
  42:.\Generated_Source\PSoC4/CyLFClk.c ****     static uint32 CySysClkIloEnabled(void);
  43:.\Generated_Source\PSoC4/CyLFClk.c **** #endif /* (CY_IP_SRSSV2) */
  44:.\Generated_Source\PSoC4/CyLFClk.c **** 
  45:.\Generated_Source\PSoC4/CyLFClk.c **** #if(CY_IP_SRSSV2)
  46:.\Generated_Source\PSoC4/CyLFClk.c ****     static cyWdtCallback cySysWdtCallback[CY_WDT_NUM_OF_WDT] = {(void *)0, (void *)0, (void *)0};
  47:.\Generated_Source\PSoC4/CyLFClk.c **** #else
  48:.\Generated_Source\PSoC4/CyLFClk.c ****     static cyWdtCallback cySysWdtCallback = (void *)0;
  49:.\Generated_Source\PSoC4/CyLFClk.c **** #endif /* (CY_IP_SRSSV2) */
  50:.\Generated_Source\PSoC4/CyLFClk.c **** 
  51:.\Generated_Source\PSoC4/CyLFClk.c **** /*******************************************************************************
  52:.\Generated_Source\PSoC4/CyLFClk.c **** * Function Name: CySysClkIloStart
  53:.\Generated_Source\PSoC4/CyLFClk.c **** ********************************************************************************
  54:.\Generated_Source\PSoC4/CyLFClk.c **** *
  55:.\Generated_Source\PSoC4/CyLFClk.c **** * Summary:
  56:.\Generated_Source\PSoC4/CyLFClk.c **** *  Enables ILO. Refer to the device datasheet for the ILO startup time.
  57:.\Generated_Source\PSoC4/CyLFClk.c **** *
  58:.\Generated_Source\PSoC4/CyLFClk.c **** * Parameters:
  59:.\Generated_Source\PSoC4/CyLFClk.c **** *  None
  60:.\Generated_Source\PSoC4/CyLFClk.c **** *
  61:.\Generated_Source\PSoC4/CyLFClk.c **** * Return:
  62:.\Generated_Source\PSoC4/CyLFClk.c **** *  None
  63:.\Generated_Source\PSoC4/CyLFClk.c **** *
  64:.\Generated_Source\PSoC4/CyLFClk.c **** *******************************************************************************/
  65:.\Generated_Source\PSoC4/CyLFClk.c **** void CySysClkIloStart(void)
  66:.\Generated_Source\PSoC4/CyLFClk.c **** {
  67:.\Generated_Source\PSoC4/CyLFClk.c ****     CY_SYS_CLK_ILO_CONFIG_REG |= CY_SYS_CLK_ILO_CONFIG_ENABLE;
  68:.\Generated_Source\PSoC4/CyLFClk.c **** }
  69:.\Generated_Source\PSoC4/CyLFClk.c **** 
  70:.\Generated_Source\PSoC4/CyLFClk.c **** 
  71:.\Generated_Source\PSoC4/CyLFClk.c **** /*******************************************************************************
  72:.\Generated_Source\PSoC4/CyLFClk.c **** * Function Name: CySysClkIloStop
  73:.\Generated_Source\PSoC4/CyLFClk.c **** ********************************************************************************
  74:.\Generated_Source\PSoC4/CyLFClk.c **** *
  75:.\Generated_Source\PSoC4/CyLFClk.c **** * Summary:
  76:.\Generated_Source\PSoC4/CyLFClk.c **** *  Disables ILO.
  77:.\Generated_Source\PSoC4/CyLFClk.c **** *
  78:.\Generated_Source\PSoC4/CyLFClk.c **** * Parameters:
  79:.\Generated_Source\PSoC4/CyLFClk.c **** *  None.
  80:.\Generated_Source\PSoC4/CyLFClk.c **** *
  81:.\Generated_Source\PSoC4/CyLFClk.c **** * Return:
  82:.\Generated_Source\PSoC4/CyLFClk.c **** *  None.
  83:.\Generated_Source\PSoC4/CyLFClk.c **** *
  84:.\Generated_Source\PSoC4/CyLFClk.c **** * Side Effects:
  85:.\Generated_Source\PSoC4/CyLFClk.c **** *  This function has no effect if WDT is locked (CySysWdtLock() is
  86:.\Generated_Source\PSoC4/CyLFClk.c **** *  called). Call CySysWdtUnlock() to unlock WDT and stop ILO.
  87:.\Generated_Source\PSoC4/CyLFClk.c **** *
  88:.\Generated_Source\PSoC4/CyLFClk.c **** *  PSoC 4100 / PSoC 4200: Note that ILO is required for WDT's operation.
  89:.\Generated_Source\PSoC4/CyLFClk.c **** *  ILO is required for WDT operation.
  90:.\Generated_Source\PSoC4/CyLFClk.c **** *
ARM GAS  C:\Users\Tim\AppData\Local\Temp\cc4ChIIk.s 			page 3


  91:.\Generated_Source\PSoC4/CyLFClk.c **** *  PSoC 4100-BL / PSoC 4200-BL and PSoC 4100M / PSoC 4200M:
  92:.\Generated_Source\PSoC4/CyLFClk.c **** *  Stopping ILO affects the peripheral clocked by LFCLK, if
  93:.\Generated_Source\PSoC4/CyLFClk.c **** *  LFCLK is configured to be sourced by ILO.
  94:.\Generated_Source\PSoC4/CyLFClk.c **** *
  95:.\Generated_Source\PSoC4/CyLFClk.c **** *******************************************************************************/
  96:.\Generated_Source\PSoC4/CyLFClk.c **** void CySysClkIloStop(void)
  97:.\Generated_Source\PSoC4/CyLFClk.c **** {
  98:.\Generated_Source\PSoC4/CyLFClk.c ****     #if(CY_IP_SRSSV2)
  99:.\Generated_Source\PSoC4/CyLFClk.c ****         uint8  interruptState;
 100:.\Generated_Source\PSoC4/CyLFClk.c **** 
 101:.\Generated_Source\PSoC4/CyLFClk.c ****         /* Do nothing if WDT is locked or ILO is disabled */
 102:.\Generated_Source\PSoC4/CyLFClk.c ****         if (0u == CySysWdtLocked())
 103:.\Generated_Source\PSoC4/CyLFClk.c ****         {
 104:.\Generated_Source\PSoC4/CyLFClk.c ****             if (0u != CySysClkIloEnabled())
 105:.\Generated_Source\PSoC4/CyLFClk.c ****             {
 106:.\Generated_Source\PSoC4/CyLFClk.c **** 
 107:.\Generated_Source\PSoC4/CyLFClk.c ****             #if (CY_IP_WCO)
 108:.\Generated_Source\PSoC4/CyLFClk.c ****                 if (CY_SYS_CLK_LFCLK_SRC_ILO == CySysClkGetLfclkSource())
 109:.\Generated_Source\PSoC4/CyLFClk.c ****                 {
 110:.\Generated_Source\PSoC4/CyLFClk.c ****             #endif /* (CY_IP_WCO) */
 111:.\Generated_Source\PSoC4/CyLFClk.c **** 
 112:.\Generated_Source\PSoC4/CyLFClk.c ****                 interruptState = CyEnterCriticalSection();
 113:.\Generated_Source\PSoC4/CyLFClk.c ****                 CySysClkLfclkPosedgeCatch();
 114:.\Generated_Source\PSoC4/CyLFClk.c ****                 CY_SYS_CLK_ILO_CONFIG_REG &= ( uint32 ) ( ~( uint32 )CY_SYS_CLK_ILO_CONFIG_ENABLE);
 115:.\Generated_Source\PSoC4/CyLFClk.c ****                 CySysClkLfclkPosedgeRestore();
 116:.\Generated_Source\PSoC4/CyLFClk.c ****                 CyExitCriticalSection(interruptState);
 117:.\Generated_Source\PSoC4/CyLFClk.c **** 
 118:.\Generated_Source\PSoC4/CyLFClk.c ****             #if (CY_IP_WCO)
 119:.\Generated_Source\PSoC4/CyLFClk.c ****                 }
 120:.\Generated_Source\PSoC4/CyLFClk.c ****                 else /* Safe to disable - shortened pulse does not impact peripheral */
 121:.\Generated_Source\PSoC4/CyLFClk.c ****                 {
 122:.\Generated_Source\PSoC4/CyLFClk.c ****                     CY_SYS_CLK_ILO_CONFIG_REG &= ( uint32 ) ( ~( uint32 )CY_SYS_CLK_ILO_CONFIG_ENAB
 123:.\Generated_Source\PSoC4/CyLFClk.c ****                 }
 124:.\Generated_Source\PSoC4/CyLFClk.c ****             #endif /* (CY_IP_WCO) */
 125:.\Generated_Source\PSoC4/CyLFClk.c **** 
 126:.\Generated_Source\PSoC4/CyLFClk.c ****             }
 127:.\Generated_Source\PSoC4/CyLFClk.c ****         }
 128:.\Generated_Source\PSoC4/CyLFClk.c ****     #else
 129:.\Generated_Source\PSoC4/CyLFClk.c ****         CY_SYS_CLK_ILO_CONFIG_REG &= ( uint32 ) ( ~( uint32 )CY_SYS_CLK_ILO_CONFIG_ENABLE);
 130:.\Generated_Source\PSoC4/CyLFClk.c ****     #endif /* (CY_IP_SRSSV2) */
 131:.\Generated_Source\PSoC4/CyLFClk.c **** }
 132:.\Generated_Source\PSoC4/CyLFClk.c **** 
 133:.\Generated_Source\PSoC4/CyLFClk.c **** #if(CY_IP_SRSSV2)
 134:.\Generated_Source\PSoC4/CyLFClk.c ****     /*******************************************************************************
 135:.\Generated_Source\PSoC4/CyLFClk.c ****     * Function Name: CySysClkIloEnabled
 136:.\Generated_Source\PSoC4/CyLFClk.c ****     ********************************************************************************
 137:.\Generated_Source\PSoC4/CyLFClk.c ****     *
 138:.\Generated_Source\PSoC4/CyLFClk.c ****     * Summary:
 139:.\Generated_Source\PSoC4/CyLFClk.c ****     *  Reports the ILO enable state.
 140:.\Generated_Source\PSoC4/CyLFClk.c ****     *
 141:.\Generated_Source\PSoC4/CyLFClk.c ****     * Parameters:
 142:.\Generated_Source\PSoC4/CyLFClk.c ****     *  None.
 143:.\Generated_Source\PSoC4/CyLFClk.c ****     *
 144:.\Generated_Source\PSoC4/CyLFClk.c ****     * Return:
 145:.\Generated_Source\PSoC4/CyLFClk.c ****     *  1 if ILO is enabled, and 0 if ILO is disabled.
 146:.\Generated_Source\PSoC4/CyLFClk.c ****     *
 147:.\Generated_Source\PSoC4/CyLFClk.c ****     *******************************************************************************/
ARM GAS  C:\Users\Tim\AppData\Local\Temp\cc4ChIIk.s 			page 4


 148:.\Generated_Source\PSoC4/CyLFClk.c ****     static uint32 CySysClkIloEnabled(void)
 149:.\Generated_Source\PSoC4/CyLFClk.c ****     {
  25              		.loc 1 149 0
  26              		.cfi_startproc
 150:.\Generated_Source\PSoC4/CyLFClk.c ****         /* Prohibits writing to WDT registers and ILO/WCO registers when not equal to 0 */
 151:.\Generated_Source\PSoC4/CyLFClk.c ****         return ((0u != (CY_SYS_CLK_ILO_CONFIG_REG & (uint32)(CY_SYS_CLK_ILO_CONFIG_ENABLE))) ?
  27              		.loc 1 151 0
  28 0000 034B     		ldr	r3, .L4
  29 0002 1B68     		ldr	r3, [r3]
 152:.\Generated_Source\PSoC4/CyLFClk.c ****             (uint32) 1u :
  30              		.loc 1 152 0
  31 0004 002B     		cmp	r3, #0
  32 0006 01DA     		bge	.L3
  33 0008 0120     		mov	r0, #1
  34 000a 00E0     		b	.L2
  35              	.L3:
  36 000c 0020     		mov	r0, #0
  37              	.L2:
 153:.\Generated_Source\PSoC4/CyLFClk.c ****             (uint32) 0u);
 154:.\Generated_Source\PSoC4/CyLFClk.c ****     }
  38              		.loc 1 154 0
  39              		@ sp needed
  40 000e 7047     		bx	lr
  41              	.L5:
  42              		.align	2
  43              	.L4:
  44 0010 04010B40 		.word	1074462980
  45              		.cfi_endproc
  46              	.LFE3:
  47              		.size	CySysClkIloEnabled, .-CySysClkIloEnabled
  48              		.section	.text.CySysClkGetLfclkSource,"ax",%progbits
  49              		.align	2
  50              		.code	16
  51              		.thumb_func
  52              		.type	CySysClkGetLfclkSource, %function
  53              	CySysClkGetLfclkSource:
  54              	.LFB4:
 155:.\Generated_Source\PSoC4/CyLFClk.c **** #endif /* (CY_IP_SRSSV2) */
 156:.\Generated_Source\PSoC4/CyLFClk.c **** 
 157:.\Generated_Source\PSoC4/CyLFClk.c **** 
 158:.\Generated_Source\PSoC4/CyLFClk.c **** /*******************************************************************************
 159:.\Generated_Source\PSoC4/CyLFClk.c **** * Function Name: CySysClkGetLfclkSource
 160:.\Generated_Source\PSoC4/CyLFClk.c **** ********************************************************************************
 161:.\Generated_Source\PSoC4/CyLFClk.c **** *
 162:.\Generated_Source\PSoC4/CyLFClk.c **** * Summary:
 163:.\Generated_Source\PSoC4/CyLFClk.c **** *  Gets the clock source for the LFCLK clock.
 164:.\Generated_Source\PSoC4/CyLFClk.c **** *  The function is applicable only for PSoC 4100-BL and PSoC 4200-BL.
 165:.\Generated_Source\PSoC4/CyLFClk.c **** *
 166:.\Generated_Source\PSoC4/CyLFClk.c **** * Parameters:
 167:.\Generated_Source\PSoC4/CyLFClk.c **** *  None.
 168:.\Generated_Source\PSoC4/CyLFClk.c **** *
 169:.\Generated_Source\PSoC4/CyLFClk.c **** * Return:
 170:.\Generated_Source\PSoC4/CyLFClk.c **** *  The LFCLK source:
 171:.\Generated_Source\PSoC4/CyLFClk.c **** *   CY_SYS_CLK_LFCLK_SRC_ILO    Internal Low Frequency (32 kHz) Oscillator (ILO)
 172:.\Generated_Source\PSoC4/CyLFClk.c **** *   CY_SYS_CLK_LFCLK_SRC_WCO    Low Frequency Watch Crystal Oscillator (WCO)
 173:.\Generated_Source\PSoC4/CyLFClk.c **** *
 174:.\Generated_Source\PSoC4/CyLFClk.c **** *******************************************************************************/
ARM GAS  C:\Users\Tim\AppData\Local\Temp\cc4ChIIk.s 			page 5


 175:.\Generated_Source\PSoC4/CyLFClk.c **** #if (CY_IP_WCO)
 176:.\Generated_Source\PSoC4/CyLFClk.c ****     static uint32 CySysClkGetLfclkSource(void)
 177:.\Generated_Source\PSoC4/CyLFClk.c ****     {
  55              		.loc 1 177 0
  56              		.cfi_startproc
 178:.\Generated_Source\PSoC4/CyLFClk.c ****         uint32 lfclkSource;
 179:.\Generated_Source\PSoC4/CyLFClk.c ****         lfclkSource = CY_SYS_WDT_CONFIG_REG & CY_SYS_CLK_LFCLK_SEL_MASK;
  57              		.loc 1 179 0
  58 0000 024B     		ldr	r3, .L7
  59 0002 1868     		ldr	r0, [r3]
  60 0004 800F     		lsr	r0, r0, #30
  61 0006 8007     		lsl	r0, r0, #30
  62              	.LVL0:
 180:.\Generated_Source\PSoC4/CyLFClk.c ****         return (lfclkSource);
 181:.\Generated_Source\PSoC4/CyLFClk.c ****     }
  63              		.loc 1 181 0
  64              		@ sp needed
  65 0008 7047     		bx	lr
  66              	.L8:
  67 000a C046     		.align	2
  68              	.L7:
  69 000c 0C020B40 		.word	1074463244
  70              		.cfi_endproc
  71              	.LFE4:
  72              		.size	CySysClkGetLfclkSource, .-CySysClkGetLfclkSource
  73              		.section	.text.CySysWdtLocked,"ax",%progbits
  74              		.align	2
  75              		.code	16
  76              		.thumb_func
  77              		.type	CySysWdtLocked, %function
  78              	CySysWdtLocked:
  79              	.LFB11:
 182:.\Generated_Source\PSoC4/CyLFClk.c **** #endif /* (CY_IP_WCO) */
 183:.\Generated_Source\PSoC4/CyLFClk.c **** 
 184:.\Generated_Source\PSoC4/CyLFClk.c **** 
 185:.\Generated_Source\PSoC4/CyLFClk.c **** /*******************************************************************************
 186:.\Generated_Source\PSoC4/CyLFClk.c **** * Function Name: CySysClkSetLfclkSource
 187:.\Generated_Source\PSoC4/CyLFClk.c **** ********************************************************************************
 188:.\Generated_Source\PSoC4/CyLFClk.c **** *
 189:.\Generated_Source\PSoC4/CyLFClk.c **** * Summary:
 190:.\Generated_Source\PSoC4/CyLFClk.c **** *  Sets the clock source for the LFCLK clock.
 191:.\Generated_Source\PSoC4/CyLFClk.c **** *
 192:.\Generated_Source\PSoC4/CyLFClk.c **** *  The switch between LFCLK sources must be done between the positive edges of
 193:.\Generated_Source\PSoC4/CyLFClk.c **** *  LFCLK, because the glitch risk is around the LFCLK positive edge. To ensure
 194:.\Generated_Source\PSoC4/CyLFClk.c **** *  that the switch can be done safely, the WDT counter value is read until it
 195:.\Generated_Source\PSoC4/CyLFClk.c **** *  changes.
 196:.\Generated_Source\PSoC4/CyLFClk.c **** *
 197:.\Generated_Source\PSoC4/CyLFClk.c **** *  That means that the positive edge just finished and the switch is performed.
 198:.\Generated_Source\PSoC4/CyLFClk.c **** *  The enabled WDT counter is used for that purpose. If no counters are enabled,
 199:.\Generated_Source\PSoC4/CyLFClk.c **** *  counter 0 is enabled. And after the LFCLK source is switched, counter 0
 200:.\Generated_Source\PSoC4/CyLFClk.c **** *  configuration is restored.
 201:.\Generated_Source\PSoC4/CyLFClk.c **** *
 202:.\Generated_Source\PSoC4/CyLFClk.c **** *  The function is applicable only for PSoC 4100-BL and PSoC 4200-BL.
 203:.\Generated_Source\PSoC4/CyLFClk.c **** *
 204:.\Generated_Source\PSoC4/CyLFClk.c **** * Parameters:
 205:.\Generated_Source\PSoC4/CyLFClk.c **** *  source: One of the available LFCLK sources.
 206:.\Generated_Source\PSoC4/CyLFClk.c **** *   CY_SYS_CLK_LFCLK_SRC_ILO    Internal Low Frequency (32 kHz) Oscillator (ILO)
ARM GAS  C:\Users\Tim\AppData\Local\Temp\cc4ChIIk.s 			page 6


 207:.\Generated_Source\PSoC4/CyLFClk.c **** *   CY_SYS_CLK_LFCLK_SRC_WCO    Low Frequency Watch Crystal Oscillator (WCO)
 208:.\Generated_Source\PSoC4/CyLFClk.c **** *
 209:.\Generated_Source\PSoC4/CyLFClk.c **** * Return:
 210:.\Generated_Source\PSoC4/CyLFClk.c **** *  None
 211:.\Generated_Source\PSoC4/CyLFClk.c **** *
 212:.\Generated_Source\PSoC4/CyLFClk.c **** * Side Effects:
 213:.\Generated_Source\PSoC4/CyLFClk.c **** *  This function has no effect if WDT is locked (CySysWdtLock() is
 214:.\Generated_Source\PSoC4/CyLFClk.c **** *  called). Call CySysWdtUnlock() to unlock WDT.
 215:.\Generated_Source\PSoC4/CyLFClk.c **** *
 216:.\Generated_Source\PSoC4/CyLFClk.c **** *  Both the current source and the new source must be running and stable before
 217:.\Generated_Source\PSoC4/CyLFClk.c **** *  calling this function.
 218:.\Generated_Source\PSoC4/CyLFClk.c **** *
 219:.\Generated_Source\PSoC4/CyLFClk.c **** *  Changing the LFCLK clock source may change the LFCLK clock frequency and
 220:.\Generated_Source\PSoC4/CyLFClk.c **** *  affect the functionality that uses this clock. For example, watchdog timer
 221:.\Generated_Source\PSoC4/CyLFClk.c **** *  "uses this clock" or "this clock uses" (WDT) is clocked by LFCLK.
 222:.\Generated_Source\PSoC4/CyLFClk.c **** *
 223:.\Generated_Source\PSoC4/CyLFClk.c **** *******************************************************************************/
 224:.\Generated_Source\PSoC4/CyLFClk.c **** #if (CY_IP_WCO)
 225:.\Generated_Source\PSoC4/CyLFClk.c ****     void CySysClkSetLfclkSource(uint32 source)
 226:.\Generated_Source\PSoC4/CyLFClk.c ****     {
 227:.\Generated_Source\PSoC4/CyLFClk.c ****         uint8  interruptState;
 228:.\Generated_Source\PSoC4/CyLFClk.c **** 
 229:.\Generated_Source\PSoC4/CyLFClk.c ****         if (CySysClkGetLfclkSource() != source)
 230:.\Generated_Source\PSoC4/CyLFClk.c ****         {
 231:.\Generated_Source\PSoC4/CyLFClk.c ****             interruptState = CyEnterCriticalSection();
 232:.\Generated_Source\PSoC4/CyLFClk.c **** 
 233:.\Generated_Source\PSoC4/CyLFClk.c ****             CySysClkLfclkPosedgeCatch();
 234:.\Generated_Source\PSoC4/CyLFClk.c **** 
 235:.\Generated_Source\PSoC4/CyLFClk.c ****             CY_SYS_WDT_CONFIG_REG = (CY_SYS_WDT_CONFIG_REG & (uint32)(~CY_SYS_CLK_LFCLK_SEL_MASK)) 
 236:.\Generated_Source\PSoC4/CyLFClk.c ****                                     (source & CY_SYS_CLK_LFCLK_SEL_MASK);
 237:.\Generated_Source\PSoC4/CyLFClk.c **** 
 238:.\Generated_Source\PSoC4/CyLFClk.c ****             CySysClkLfclkPosedgeRestore();
 239:.\Generated_Source\PSoC4/CyLFClk.c **** 
 240:.\Generated_Source\PSoC4/CyLFClk.c ****             CyExitCriticalSection(interruptState);
 241:.\Generated_Source\PSoC4/CyLFClk.c ****         }
 242:.\Generated_Source\PSoC4/CyLFClk.c ****     }
 243:.\Generated_Source\PSoC4/CyLFClk.c **** #endif /* (CY_IP_WCO) */
 244:.\Generated_Source\PSoC4/CyLFClk.c **** 
 245:.\Generated_Source\PSoC4/CyLFClk.c **** 
 246:.\Generated_Source\PSoC4/CyLFClk.c **** #if (CY_IP_WCO)
 247:.\Generated_Source\PSoC4/CyLFClk.c ****     /*******************************************************************************
 248:.\Generated_Source\PSoC4/CyLFClk.c ****     * Function Name: CySysClkWcoStart
 249:.\Generated_Source\PSoC4/CyLFClk.c ****     ********************************************************************************
 250:.\Generated_Source\PSoC4/CyLFClk.c ****     *
 251:.\Generated_Source\PSoC4/CyLFClk.c ****     * Summary:
 252:.\Generated_Source\PSoC4/CyLFClk.c ****     *  Enables Watch Crystal Oscillator (WCO). WCO is used as a source for
 253:.\Generated_Source\PSoC4/CyLFClk.c ****     *  LFCLK.  Similar to ILO, WCO is also available in all modes except Hibernate
 254:.\Generated_Source\PSoC4/CyLFClk.c ****     *  and Stop modes.
 255:.\Generated_Source\PSoC4/CyLFClk.c ****     *
 256:.\Generated_Source\PSoC4/CyLFClk.c ****     *  WCO is always enabled in High Power Mode (HPM). Refer to the device
 257:.\Generated_Source\PSoC4/CyLFClk.c ****     *  datasheet for the  WCO startup time. Once WCO becomes stable it can be
 258:.\Generated_Source\PSoC4/CyLFClk.c ****     *  switched to Low Power Mode (LPM). Note that oscillator can be unstable
 259:.\Generated_Source\PSoC4/CyLFClk.c ****     *  during a switch and hence its output should not be used at that moment.
 260:.\Generated_Source\PSoC4/CyLFClk.c ****     *
 261:.\Generated_Source\PSoC4/CyLFClk.c ****     *  The CySysClkWcoSetPowerMode() function configures the WCO power mode.
 262:.\Generated_Source\PSoC4/CyLFClk.c ****     *
 263:.\Generated_Source\PSoC4/CyLFClk.c ****     * Parameters:
ARM GAS  C:\Users\Tim\AppData\Local\Temp\cc4ChIIk.s 			page 7


 264:.\Generated_Source\PSoC4/CyLFClk.c ****     *  None.
 265:.\Generated_Source\PSoC4/CyLFClk.c ****     *
 266:.\Generated_Source\PSoC4/CyLFClk.c ****     * Return:
 267:.\Generated_Source\PSoC4/CyLFClk.c ****     *  None.
 268:.\Generated_Source\PSoC4/CyLFClk.c ****     *
 269:.\Generated_Source\PSoC4/CyLFClk.c ****     *******************************************************************************/
 270:.\Generated_Source\PSoC4/CyLFClk.c ****     void CySysClkWcoStart(void)
 271:.\Generated_Source\PSoC4/CyLFClk.c ****     {
 272:.\Generated_Source\PSoC4/CyLFClk.c ****         CySysClkWcoSetHighPowerMode();
 273:.\Generated_Source\PSoC4/CyLFClk.c ****         CY_SYS_CLK_WCO_CONFIG_REG |= CY_SYS_CLK_WCO_CONFIG_LPM_ENABLE;
 274:.\Generated_Source\PSoC4/CyLFClk.c ****     }
 275:.\Generated_Source\PSoC4/CyLFClk.c **** 
 276:.\Generated_Source\PSoC4/CyLFClk.c **** 
 277:.\Generated_Source\PSoC4/CyLFClk.c ****     /*******************************************************************************
 278:.\Generated_Source\PSoC4/CyLFClk.c ****     * Function Name: CySysClkWcoStop
 279:.\Generated_Source\PSoC4/CyLFClk.c ****     ********************************************************************************
 280:.\Generated_Source\PSoC4/CyLFClk.c ****     *
 281:.\Generated_Source\PSoC4/CyLFClk.c ****     * Summary:
 282:.\Generated_Source\PSoC4/CyLFClk.c ****     *  Disables the 32KHz Crystal Oscillator.
 283:.\Generated_Source\PSoC4/CyLFClk.c ****     *
 284:.\Generated_Source\PSoC4/CyLFClk.c ****     * Parameters:
 285:.\Generated_Source\PSoC4/CyLFClk.c ****     *  None.
 286:.\Generated_Source\PSoC4/CyLFClk.c ****     *
 287:.\Generated_Source\PSoC4/CyLFClk.c ****     * Return:
 288:.\Generated_Source\PSoC4/CyLFClk.c ****     *  None.
 289:.\Generated_Source\PSoC4/CyLFClk.c ****     *
 290:.\Generated_Source\PSoC4/CyLFClk.c ****     *******************************************************************************/
 291:.\Generated_Source\PSoC4/CyLFClk.c ****     void  CySysClkWcoStop(void)
 292:.\Generated_Source\PSoC4/CyLFClk.c ****     {
 293:.\Generated_Source\PSoC4/CyLFClk.c ****         uint8  interruptState;
 294:.\Generated_Source\PSoC4/CyLFClk.c **** 
 295:.\Generated_Source\PSoC4/CyLFClk.c ****         if (0u != CySysClkWcoEnabled())
 296:.\Generated_Source\PSoC4/CyLFClk.c ****         {
 297:.\Generated_Source\PSoC4/CyLFClk.c **** 
 298:.\Generated_Source\PSoC4/CyLFClk.c ****             if (CY_SYS_CLK_LFCLK_SRC_WCO == CySysClkGetLfclkSource())
 299:.\Generated_Source\PSoC4/CyLFClk.c ****             {
 300:.\Generated_Source\PSoC4/CyLFClk.c ****                 interruptState = CyEnterCriticalSection();
 301:.\Generated_Source\PSoC4/CyLFClk.c ****                 CySysClkLfclkPosedgeCatch();
 302:.\Generated_Source\PSoC4/CyLFClk.c ****                 CY_SYS_CLK_WCO_CONFIG_REG &= (uint32) ~CY_SYS_CLK_WCO_CONFIG_LPM_ENABLE;
 303:.\Generated_Source\PSoC4/CyLFClk.c ****                 CySysClkLfclkPosedgeRestore();
 304:.\Generated_Source\PSoC4/CyLFClk.c ****                 CyExitCriticalSection(interruptState);
 305:.\Generated_Source\PSoC4/CyLFClk.c ****             }
 306:.\Generated_Source\PSoC4/CyLFClk.c ****             else /* Safe to disable - shortened pulse does not impact peripheral */
 307:.\Generated_Source\PSoC4/CyLFClk.c ****             {
 308:.\Generated_Source\PSoC4/CyLFClk.c ****                 CY_SYS_CLK_WCO_CONFIG_REG &= (uint32) ~CY_SYS_CLK_WCO_CONFIG_LPM_ENABLE;
 309:.\Generated_Source\PSoC4/CyLFClk.c ****             }
 310:.\Generated_Source\PSoC4/CyLFClk.c ****         } /* Otherwise do nothing. WCO configuration cannot be changed. */
 311:.\Generated_Source\PSoC4/CyLFClk.c ****     }
 312:.\Generated_Source\PSoC4/CyLFClk.c **** 
 313:.\Generated_Source\PSoC4/CyLFClk.c **** 
 314:.\Generated_Source\PSoC4/CyLFClk.c ****     /*******************************************************************************
 315:.\Generated_Source\PSoC4/CyLFClk.c ****     * Function Name: CySysClkWcoEnabled
 316:.\Generated_Source\PSoC4/CyLFClk.c ****     ********************************************************************************
 317:.\Generated_Source\PSoC4/CyLFClk.c ****     *
 318:.\Generated_Source\PSoC4/CyLFClk.c ****     * Summary:
 319:.\Generated_Source\PSoC4/CyLFClk.c ****     *  Reports the WCO enable state.
 320:.\Generated_Source\PSoC4/CyLFClk.c ****     *
ARM GAS  C:\Users\Tim\AppData\Local\Temp\cc4ChIIk.s 			page 8


 321:.\Generated_Source\PSoC4/CyLFClk.c ****     * Parameters:
 322:.\Generated_Source\PSoC4/CyLFClk.c ****     *  None.
 323:.\Generated_Source\PSoC4/CyLFClk.c ****     *
 324:.\Generated_Source\PSoC4/CyLFClk.c ****     * Return:
 325:.\Generated_Source\PSoC4/CyLFClk.c ****     *  1 if WCO is enabled, and 0 if WCO is disabled.
 326:.\Generated_Source\PSoC4/CyLFClk.c ****     *
 327:.\Generated_Source\PSoC4/CyLFClk.c ****     *******************************************************************************/
 328:.\Generated_Source\PSoC4/CyLFClk.c ****     uint32 CySysClkWcoEnabled(void)
 329:.\Generated_Source\PSoC4/CyLFClk.c ****     {
 330:.\Generated_Source\PSoC4/CyLFClk.c ****         return ((0u != (CY_SYS_CLK_WCO_CONFIG_REG & (uint32)(CY_SYS_CLK_WCO_CONFIG_LPM_ENABLE))) ?
 331:.\Generated_Source\PSoC4/CyLFClk.c ****                 (uint32) 1u :
 332:.\Generated_Source\PSoC4/CyLFClk.c ****                 (uint32) 0u);
 333:.\Generated_Source\PSoC4/CyLFClk.c ****     }
 334:.\Generated_Source\PSoC4/CyLFClk.c **** 
 335:.\Generated_Source\PSoC4/CyLFClk.c **** 
 336:.\Generated_Source\PSoC4/CyLFClk.c ****     /*******************************************************************************
 337:.\Generated_Source\PSoC4/CyLFClk.c ****     * Function Name: CySysClkWcoSetPowerMode
 338:.\Generated_Source\PSoC4/CyLFClk.c ****     ********************************************************************************
 339:.\Generated_Source\PSoC4/CyLFClk.c ****     *
 340:.\Generated_Source\PSoC4/CyLFClk.c ****     * Summary:
 341:.\Generated_Source\PSoC4/CyLFClk.c ****     *  Sets the power mode for the 32 KHz WCO.
 342:.\Generated_Source\PSoC4/CyLFClk.c ****     *
 343:.\Generated_Source\PSoC4/CyLFClk.c ****     * Parameters:
 344:.\Generated_Source\PSoC4/CyLFClk.c ****     *  uint32 mode:
 345:.\Generated_Source\PSoC4/CyLFClk.c ****     *   CY_SYS_CLK_WCO_HPM  - The High Power mode
 346:.\Generated_Source\PSoC4/CyLFClk.c ****     *   CY_SYS_CLK_WCO_LPM  - The Low Power mode(not applicable for
 347:.\Generated_Source\PSoC4/CyLFClk.c ****     *                         PSoC 4100M / PSoC 4200M devices)
 348:.\Generated_Source\PSoC4/CyLFClk.c ****     *
 349:.\Generated_Source\PSoC4/CyLFClk.c ****     * Return:
 350:.\Generated_Source\PSoC4/CyLFClk.c ****     *  A previous power mode. The same as the parameters.
 351:.\Generated_Source\PSoC4/CyLFClk.c ****     *
 352:.\Generated_Source\PSoC4/CyLFClk.c ****     * Note:
 353:.\Generated_Source\PSoC4/CyLFClk.c ****     *  The WCO Low power mode is not applicable for the PSoC 4100M/PSoC 4200M
 354:.\Generated_Source\PSoC4/CyLFClk.c ****     *  devices.
 355:.\Generated_Source\PSoC4/CyLFClk.c ****     *
 356:.\Generated_Source\PSoC4/CyLFClk.c ****     *******************************************************************************/
 357:.\Generated_Source\PSoC4/CyLFClk.c ****     uint32 CySysClkWcoSetPowerMode(uint32 mode)
 358:.\Generated_Source\PSoC4/CyLFClk.c ****     {
 359:.\Generated_Source\PSoC4/CyLFClk.c ****         uint32 status;
 360:.\Generated_Source\PSoC4/CyLFClk.c **** 
 361:.\Generated_Source\PSoC4/CyLFClk.c ****         status = CY_SYS_CLK_WCO_CONFIG_REG & CY_SYS_CLK_WCO_CONFIG_LPM_EN;
 362:.\Generated_Source\PSoC4/CyLFClk.c **** 
 363:.\Generated_Source\PSoC4/CyLFClk.c ****         switch(mode)
 364:.\Generated_Source\PSoC4/CyLFClk.c ****         {
 365:.\Generated_Source\PSoC4/CyLFClk.c ****         case CY_SYS_CLK_WCO_HPM:
 366:.\Generated_Source\PSoC4/CyLFClk.c ****                 CySysClkWcoSetHighPowerMode();
 367:.\Generated_Source\PSoC4/CyLFClk.c ****             break;
 368:.\Generated_Source\PSoC4/CyLFClk.c **** 
 369:.\Generated_Source\PSoC4/CyLFClk.c ****         #if(!CY_PSOC4_4100M && !CY_PSOC4_4200M)
 370:.\Generated_Source\PSoC4/CyLFClk.c ****             case CY_SYS_CLK_WCO_LPM:
 371:.\Generated_Source\PSoC4/CyLFClk.c ****                     CySysClkWcoSetLowPowerMode();
 372:.\Generated_Source\PSoC4/CyLFClk.c ****                 break;
 373:.\Generated_Source\PSoC4/CyLFClk.c ****         #endif /* (!CY_PSOC4_4100M && !CY_PSOC4_4200M) */
 374:.\Generated_Source\PSoC4/CyLFClk.c **** 
 375:.\Generated_Source\PSoC4/CyLFClk.c ****         default:
 376:.\Generated_Source\PSoC4/CyLFClk.c ****             CYASSERT(0u != 0u);
 377:.\Generated_Source\PSoC4/CyLFClk.c ****             break;
ARM GAS  C:\Users\Tim\AppData\Local\Temp\cc4ChIIk.s 			page 9


 378:.\Generated_Source\PSoC4/CyLFClk.c ****         }
 379:.\Generated_Source\PSoC4/CyLFClk.c **** 
 380:.\Generated_Source\PSoC4/CyLFClk.c ****         return (status);
 381:.\Generated_Source\PSoC4/CyLFClk.c ****     }
 382:.\Generated_Source\PSoC4/CyLFClk.c **** 
 383:.\Generated_Source\PSoC4/CyLFClk.c **** #endif  /* (CY_IP_WCO) */
 384:.\Generated_Source\PSoC4/CyLFClk.c **** 
 385:.\Generated_Source\PSoC4/CyLFClk.c **** 
 386:.\Generated_Source\PSoC4/CyLFClk.c **** #if(CY_IP_SRSSV2)
 387:.\Generated_Source\PSoC4/CyLFClk.c **** 
 388:.\Generated_Source\PSoC4/CyLFClk.c **** 
 389:.\Generated_Source\PSoC4/CyLFClk.c ****     /*******************************************************************************
 390:.\Generated_Source\PSoC4/CyLFClk.c ****     * Function Name: CySysWdtLock
 391:.\Generated_Source\PSoC4/CyLFClk.c ****     ********************************************************************************
 392:.\Generated_Source\PSoC4/CyLFClk.c ****     *
 393:.\Generated_Source\PSoC4/CyLFClk.c ****     * Summary:
 394:.\Generated_Source\PSoC4/CyLFClk.c ****     *  Locks out configuration changes to the Watchdog timer registers and ILO
 395:.\Generated_Source\PSoC4/CyLFClk.c ****     *  configuration register.
 396:.\Generated_Source\PSoC4/CyLFClk.c ****     *
 397:.\Generated_Source\PSoC4/CyLFClk.c ****     * Parameters:
 398:.\Generated_Source\PSoC4/CyLFClk.c ****     *  None.
 399:.\Generated_Source\PSoC4/CyLFClk.c ****     *
 400:.\Generated_Source\PSoC4/CyLFClk.c ****     * Return:
 401:.\Generated_Source\PSoC4/CyLFClk.c ****     *  None.
 402:.\Generated_Source\PSoC4/CyLFClk.c ****     *
 403:.\Generated_Source\PSoC4/CyLFClk.c ****     * Side effects:
 404:.\Generated_Source\PSoC4/CyLFClk.c ****     *  After this function is called, ILO clock can't be disabled until
 405:.\Generated_Source\PSoC4/CyLFClk.c ****     *  CySysWdtUnlock() is called.
 406:.\Generated_Source\PSoC4/CyLFClk.c ****     *
 407:.\Generated_Source\PSoC4/CyLFClk.c ****     *******************************************************************************/
 408:.\Generated_Source\PSoC4/CyLFClk.c ****     void CySysWdtLock(void)
 409:.\Generated_Source\PSoC4/CyLFClk.c ****     {
 410:.\Generated_Source\PSoC4/CyLFClk.c ****         uint8 interruptState;
 411:.\Generated_Source\PSoC4/CyLFClk.c ****         interruptState = CyEnterCriticalSection();
 412:.\Generated_Source\PSoC4/CyLFClk.c **** 
 413:.\Generated_Source\PSoC4/CyLFClk.c ****         CY_SYS_CLK_SELECT_REG = (CY_SYS_CLK_SELECT_REG & (uint32)(~CY_SYS_WDT_CLK_LOCK_BITS_MASK)) 
 414:.\Generated_Source\PSoC4/CyLFClk.c ****                  CY_SYS_WDT_CLK_LOCK_BITS_MASK;
 415:.\Generated_Source\PSoC4/CyLFClk.c **** 
 416:.\Generated_Source\PSoC4/CyLFClk.c ****         CyExitCriticalSection(interruptState);
 417:.\Generated_Source\PSoC4/CyLFClk.c ****     }
 418:.\Generated_Source\PSoC4/CyLFClk.c **** 
 419:.\Generated_Source\PSoC4/CyLFClk.c **** 
 420:.\Generated_Source\PSoC4/CyLFClk.c ****     /*******************************************************************************
 421:.\Generated_Source\PSoC4/CyLFClk.c ****     * Function Name: CySysWdtLocked
 422:.\Generated_Source\PSoC4/CyLFClk.c ****     ********************************************************************************
 423:.\Generated_Source\PSoC4/CyLFClk.c ****     *
 424:.\Generated_Source\PSoC4/CyLFClk.c ****     * Summary:
 425:.\Generated_Source\PSoC4/CyLFClk.c ****     *  Reports the WDT lock state.
 426:.\Generated_Source\PSoC4/CyLFClk.c ****     *
 427:.\Generated_Source\PSoC4/CyLFClk.c ****     * Parameters:
 428:.\Generated_Source\PSoC4/CyLFClk.c ****     *  None
 429:.\Generated_Source\PSoC4/CyLFClk.c ****     *
 430:.\Generated_Source\PSoC4/CyLFClk.c ****     * Return:
 431:.\Generated_Source\PSoC4/CyLFClk.c ****     *  1 - WDT is locked, and 0 - WDT is unlocked.
 432:.\Generated_Source\PSoC4/CyLFClk.c ****     *
 433:.\Generated_Source\PSoC4/CyLFClk.c ****     *******************************************************************************/
 434:.\Generated_Source\PSoC4/CyLFClk.c ****     static uint32 CySysWdtLocked(void)
ARM GAS  C:\Users\Tim\AppData\Local\Temp\cc4ChIIk.s 			page 10


 435:.\Generated_Source\PSoC4/CyLFClk.c ****     {
  80              		.loc 1 435 0
  81              		.cfi_startproc
 436:.\Generated_Source\PSoC4/CyLFClk.c ****         /* Prohibits writing to WDT registers and ILO/WCO registers when not equal 0 */
 437:.\Generated_Source\PSoC4/CyLFClk.c ****         return ((0u != (CY_SYS_CLK_SELECT_REG & (uint32)(CY_SYS_WDT_CLK_LOCK_BITS_MASK))) ? (uint32
  82              		.loc 1 437 0
  83 0000 034B     		ldr	r3, .L11
  84 0002 1868     		ldr	r0, [r3]
  85 0004 C023     		mov	r3, #192
  86 0006 1B02     		lsl	r3, r3, #8
  87 0008 1840     		and	r0, r3
  88 000a 00D0     		beq	.L10
  89 000c 0120     		mov	r0, #1
  90              	.L10:
 438:.\Generated_Source\PSoC4/CyLFClk.c ****     }
  91              		.loc 1 438 0 discriminator 4
  92              		@ sp needed
  93 000e 7047     		bx	lr
  94              	.L12:
  95              		.align	2
  96              	.L11:
  97 0010 00010B40 		.word	1074462976
  98              		.cfi_endproc
  99              	.LFE11:
 100              		.size	CySysWdtLocked, .-CySysWdtLocked
 101              		.section	.text.CySysClkIloStart,"ax",%progbits
 102              		.align	2
 103              		.global	CySysClkIloStart
 104              		.code	16
 105              		.thumb_func
 106              		.type	CySysClkIloStart, %function
 107              	CySysClkIloStart:
 108              	.LFB1:
  66:.\Generated_Source\PSoC4/CyLFClk.c ****     CY_SYS_CLK_ILO_CONFIG_REG |= CY_SYS_CLK_ILO_CONFIG_ENABLE;
 109              		.loc 1 66 0
 110              		.cfi_startproc
  67:.\Generated_Source\PSoC4/CyLFClk.c **** }
 111              		.loc 1 67 0
 112 0000 034A     		ldr	r2, .L14
 113 0002 1368     		ldr	r3, [r2]
 114 0004 8021     		mov	r1, #128
 115 0006 0906     		lsl	r1, r1, #24
 116 0008 0B43     		orr	r3, r1
 117 000a 1360     		str	r3, [r2]
  68:.\Generated_Source\PSoC4/CyLFClk.c **** 
 118              		.loc 1 68 0
 119              		@ sp needed
 120 000c 7047     		bx	lr
 121              	.L15:
 122 000e C046     		.align	2
 123              	.L14:
 124 0010 04010B40 		.word	1074462980
 125              		.cfi_endproc
 126              	.LFE1:
 127              		.size	CySysClkIloStart, .-CySysClkIloStart
 128              		.section	.text.CySysClkWcoStart,"ax",%progbits
 129              		.align	2
ARM GAS  C:\Users\Tim\AppData\Local\Temp\cc4ChIIk.s 			page 11


 130              		.global	CySysClkWcoStart
 131              		.code	16
 132              		.thumb_func
 133              		.type	CySysClkWcoStart, %function
 134              	CySysClkWcoStart:
 135              	.LFB6:
 271:.\Generated_Source\PSoC4/CyLFClk.c ****         CySysClkWcoSetHighPowerMode();
 136              		.loc 1 271 0
 137              		.cfi_startproc
 138 0000 10B5     		push	{r4, lr}
 139              		.cfi_def_cfa_offset 8
 140              		.cfi_offset 4, -8
 141              		.cfi_offset 14, -4
 142              	.LBB4:
 143              	.LBB5:
 144              		.file 2 ".\\Generated_Source\\PSoC4\\CyLFClk.h"
   1:.\Generated_Source\PSoC4/CyLFClk.h **** /*******************************************************************************
   2:.\Generated_Source\PSoC4/CyLFClk.h **** * File Name: .h
   3:.\Generated_Source\PSoC4/CyLFClk.h **** * Version 1.0
   4:.\Generated_Source\PSoC4/CyLFClk.h **** *
   5:.\Generated_Source\PSoC4/CyLFClk.h **** * Description:
   6:.\Generated_Source\PSoC4/CyLFClk.h **** *  This file provides constants and parameter values for the cy_lfclk Component.
   7:.\Generated_Source\PSoC4/CyLFClk.h **** *
   8:.\Generated_Source\PSoC4/CyLFClk.h **** ********************************************************************************
   9:.\Generated_Source\PSoC4/CyLFClk.h **** * Copyright 2008-2015, Cypress Semiconductor Corporation.  All rights reserved.
  10:.\Generated_Source\PSoC4/CyLFClk.h **** * You may use this file only in accordance with the license, terms, conditions,
  11:.\Generated_Source\PSoC4/CyLFClk.h **** * disclaimers, and limitations in the end user license agreement accompanying
  12:.\Generated_Source\PSoC4/CyLFClk.h **** * the software package with which this file was provided.
  13:.\Generated_Source\PSoC4/CyLFClk.h **** *******************************************************************************/
  14:.\Generated_Source\PSoC4/CyLFClk.h **** 
  15:.\Generated_Source\PSoC4/CyLFClk.h **** #if !defined(CY_LFCLK_CYLIB_H)
  16:.\Generated_Source\PSoC4/CyLFClk.h **** #define CY_LFCLK_CYLIB_H
  17:.\Generated_Source\PSoC4/CyLFClk.h **** 
  18:.\Generated_Source\PSoC4/CyLFClk.h **** #include "cytypes.h"
  19:.\Generated_Source\PSoC4/CyLFClk.h **** #include "cydevice_trm.h"
  20:.\Generated_Source\PSoC4/CyLFClk.h **** 
  21:.\Generated_Source\PSoC4/CyLFClk.h **** typedef enum
  22:.\Generated_Source\PSoC4/CyLFClk.h **** {
  23:.\Generated_Source\PSoC4/CyLFClk.h ****     CY_SYS_TIMER_WAIT = 0u,
  24:.\Generated_Source\PSoC4/CyLFClk.h ****     CY_SYS_TIMER_INTERRUPT = 1u
  25:.\Generated_Source\PSoC4/CyLFClk.h **** } cy_sys_timer_delaytype_enum;
  26:.\Generated_Source\PSoC4/CyLFClk.h **** 
  27:.\Generated_Source\PSoC4/CyLFClk.h **** 
  28:.\Generated_Source\PSoC4/CyLFClk.h **** /***************************************
  29:.\Generated_Source\PSoC4/CyLFClk.h **** *    Function Prototypes
  30:.\Generated_Source\PSoC4/CyLFClk.h **** ***************************************/
  31:.\Generated_Source\PSoC4/CyLFClk.h **** 
  32:.\Generated_Source\PSoC4/CyLFClk.h **** /* Clocks API */
  33:.\Generated_Source\PSoC4/CyLFClk.h **** void CySysClkIloStart(void);
  34:.\Generated_Source\PSoC4/CyLFClk.h **** void CySysClkIloStop(void);
  35:.\Generated_Source\PSoC4/CyLFClk.h **** 
  36:.\Generated_Source\PSoC4/CyLFClk.h **** #if (CY_IP_WCO)
  37:.\Generated_Source\PSoC4/CyLFClk.h ****     void   CySysClkWcoStart(void);
  38:.\Generated_Source\PSoC4/CyLFClk.h ****     void   CySysClkWcoStop(void);
  39:.\Generated_Source\PSoC4/CyLFClk.h ****     uint32 CySysClkWcoSetPowerMode(uint32 mode);
  40:.\Generated_Source\PSoC4/CyLFClk.h **** 
  41:.\Generated_Source\PSoC4/CyLFClk.h ****     void CySysClkSetLfclkSource(uint32 source);
ARM GAS  C:\Users\Tim\AppData\Local\Temp\cc4ChIIk.s 			page 12


  42:.\Generated_Source\PSoC4/CyLFClk.h ****     uint32 CySysClkWcoEnabled(void);
  43:.\Generated_Source\PSoC4/CyLFClk.h **** #endif /* (CY_IP_WCO) */
  44:.\Generated_Source\PSoC4/CyLFClk.h **** 
  45:.\Generated_Source\PSoC4/CyLFClk.h **** typedef void (*cyWdtCallback)(void);
  46:.\Generated_Source\PSoC4/CyLFClk.h **** 
  47:.\Generated_Source\PSoC4/CyLFClk.h **** #if(CY_IP_SRSSV2)
  48:.\Generated_Source\PSoC4/CyLFClk.h ****     /* WDT API */
  49:.\Generated_Source\PSoC4/CyLFClk.h ****     void   CySysWdtLock(void);
  50:.\Generated_Source\PSoC4/CyLFClk.h ****     void   CySysWdtUnlock(void);
  51:.\Generated_Source\PSoC4/CyLFClk.h ****     void   CySysWdtSetMode(uint32 counterNum, uint32 mode);
  52:.\Generated_Source\PSoC4/CyLFClk.h ****     uint32 CySysWdtGetMode(uint32 counterNum);
  53:.\Generated_Source\PSoC4/CyLFClk.h ****     uint32 CySysWdtGetEnabledStatus(uint32 counterNum);
  54:.\Generated_Source\PSoC4/CyLFClk.h ****     void   CySysWdtSetClearOnMatch(uint32 counterNum, uint32 enable);
  55:.\Generated_Source\PSoC4/CyLFClk.h ****     uint32 CySysWdtGetClearOnMatch(uint32 counterNum);
  56:.\Generated_Source\PSoC4/CyLFClk.h ****     void   CySysWdtEnable(uint32 counterMask);
  57:.\Generated_Source\PSoC4/CyLFClk.h ****     void   CySysWdtDisable(uint32 counterMask);
  58:.\Generated_Source\PSoC4/CyLFClk.h ****     void   CySysWdtSetCascade(uint32 cascadeMask);
  59:.\Generated_Source\PSoC4/CyLFClk.h ****     uint32 CySysWdtGetCascade(void);
  60:.\Generated_Source\PSoC4/CyLFClk.h ****     void   CySysWdtSetMatch(uint32 counterNum, uint32 match);
  61:.\Generated_Source\PSoC4/CyLFClk.h ****     void   CySysWdtSetToggleBit(uint32 bits);
  62:.\Generated_Source\PSoC4/CyLFClk.h ****     uint32 CySysWdtGetToggleBit(void);
  63:.\Generated_Source\PSoC4/CyLFClk.h ****     uint32 CySysWdtGetMatch(uint32 counterNum);
  64:.\Generated_Source\PSoC4/CyLFClk.h ****     uint32 CySysWdtGetCount(uint32 counterNum);
  65:.\Generated_Source\PSoC4/CyLFClk.h ****     uint32 CySysWdtGetInterruptSource(void);
  66:.\Generated_Source\PSoC4/CyLFClk.h ****     void   CySysWdtClearInterrupt(uint32 counterMask);
  67:.\Generated_Source\PSoC4/CyLFClk.h ****     void   CySysWdtResetCounters(uint32 countersMask);
  68:.\Generated_Source\PSoC4/CyLFClk.h ****     cyWdtCallback  CySysWdtSetInterruptCallback(uint32 counterNum, cyWdtCallback function);
  69:.\Generated_Source\PSoC4/CyLFClk.h ****     cyWdtCallback  CySysWdtGetInterruptCallback(uint32 counterNum);
  70:.\Generated_Source\PSoC4/CyLFClk.h ****     void   CySysTimerDelay(uint32 counterNum, cy_sys_timer_delaytype_enum delayType, uint32 delay);
  71:.\Generated_Source\PSoC4/CyLFClk.h ****     void   CySysTimerDelayUntilMatch(uint32 counterNum, cy_sys_timer_delaytype_enum delayType, uint
  72:.\Generated_Source\PSoC4/CyLFClk.h ****     void   CySysWatchdogFeed(uint32 counterNum);
  73:.\Generated_Source\PSoC4/CyLFClk.h ****     void   CySysWdtEnableCounterIsr(uint32 counterNum);
  74:.\Generated_Source\PSoC4/CyLFClk.h ****     void   CySysWdtDisableCounterIsr(uint32 counterNum);
  75:.\Generated_Source\PSoC4/CyLFClk.h ****     void   CySysWdtIsr(void);
  76:.\Generated_Source\PSoC4/CyLFClk.h **** #else
  77:.\Generated_Source\PSoC4/CyLFClk.h ****     /* WDT API */
  78:.\Generated_Source\PSoC4/CyLFClk.h ****     uint32 CySysWdtGetEnabledStatus(void);
  79:.\Generated_Source\PSoC4/CyLFClk.h ****     void   CySysWdtEnable(void);
  80:.\Generated_Source\PSoC4/CyLFClk.h ****     void   CySysWdtDisable(void);
  81:.\Generated_Source\PSoC4/CyLFClk.h ****     void   CySysWdtSetMatch(uint32 match);
  82:.\Generated_Source\PSoC4/CyLFClk.h ****     uint32 CySysWdtGetMatch(void);
  83:.\Generated_Source\PSoC4/CyLFClk.h ****     uint32 CySysWdtGetCount(void);
  84:.\Generated_Source\PSoC4/CyLFClk.h ****     void   CySysWdtSetIgnoreBits(uint32 bitsNum);
  85:.\Generated_Source\PSoC4/CyLFClk.h ****     uint32 CySysWdtGetIgnoreBits(void);
  86:.\Generated_Source\PSoC4/CyLFClk.h ****     void   CySysWdtClearInterrupt(void);
  87:.\Generated_Source\PSoC4/CyLFClk.h ****     void   CySysWdtMaskInterrupt(void);
  88:.\Generated_Source\PSoC4/CyLFClk.h ****     void   CySysWdtUnmaskInterrupt(void);
  89:.\Generated_Source\PSoC4/CyLFClk.h ****     cyWdtCallback CySysWdtSetInterruptCallback(cyWdtCallback function);
  90:.\Generated_Source\PSoC4/CyLFClk.h ****     cyWdtCallback CySysWdtGetInterruptCallback(void);
  91:.\Generated_Source\PSoC4/CyLFClk.h ****     void   CySysWdtIsr(void);
  92:.\Generated_Source\PSoC4/CyLFClk.h **** #endif  /* (CY_IP_SRSSV2) */
  93:.\Generated_Source\PSoC4/CyLFClk.h **** 
  94:.\Generated_Source\PSoC4/CyLFClk.h **** 
  95:.\Generated_Source\PSoC4/CyLFClk.h **** /***************************************
  96:.\Generated_Source\PSoC4/CyLFClk.h **** * API Constants
  97:.\Generated_Source\PSoC4/CyLFClk.h **** ***************************************/
  98:.\Generated_Source\PSoC4/CyLFClk.h **** 
ARM GAS  C:\Users\Tim\AppData\Local\Temp\cc4ChIIk.s 			page 13


  99:.\Generated_Source\PSoC4/CyLFClk.h **** #define UINT16_MAX_VAL    (0xFFFFu)
 100:.\Generated_Source\PSoC4/CyLFClk.h **** 
 101:.\Generated_Source\PSoC4/CyLFClk.h **** 
 102:.\Generated_Source\PSoC4/CyLFClk.h **** /*******************************************************************************
 103:.\Generated_Source\PSoC4/CyLFClk.h **** * Clock API Constants
 104:.\Generated_Source\PSoC4/CyLFClk.h **** *******************************************************************************/
 105:.\Generated_Source\PSoC4/CyLFClk.h **** /* CySysClkIloStart()/CySysClkIloStop() - implementation definitions */
 106:.\Generated_Source\PSoC4/CyLFClk.h **** #define CY_SYS_CLK_ILO_CONFIG_ENABLE                    (( uint32 )(( uint32 )0x01u << 31u))
 107:.\Generated_Source\PSoC4/CyLFClk.h **** 
 108:.\Generated_Source\PSoC4/CyLFClk.h **** 
 109:.\Generated_Source\PSoC4/CyLFClk.h **** /* CySysClkSetLfclkSource() - parameter definitions */
 110:.\Generated_Source\PSoC4/CyLFClk.h **** #if (CY_IP_WCO)
 111:.\Generated_Source\PSoC4/CyLFClk.h ****     #define CY_SYS_CLK_LFCLK_SRC_ILO                    (0u)
 112:.\Generated_Source\PSoC4/CyLFClk.h ****     #define CY_SYS_CLK_LFCLK_SRC_WCO                    (( uint32 )(( uint32 )0x01u << 30u))
 113:.\Generated_Source\PSoC4/CyLFClk.h **** #endif /* (CY_IP_WCO) */
 114:.\Generated_Source\PSoC4/CyLFClk.h **** 
 115:.\Generated_Source\PSoC4/CyLFClk.h **** 
 116:.\Generated_Source\PSoC4/CyLFClk.h **** /* CySysClkSetLfclkSource() - implementation definitions */
 117:.\Generated_Source\PSoC4/CyLFClk.h **** #if (CY_IP_WCO)
 118:.\Generated_Source\PSoC4/CyLFClk.h ****     #define CY_SYS_CLK_LFCLK_SEL_MASK                   (( uint32 )(( uint32 )0x03u << 30u))
 119:.\Generated_Source\PSoC4/CyLFClk.h **** #endif /* (CY_IP_WCO) */
 120:.\Generated_Source\PSoC4/CyLFClk.h **** 
 121:.\Generated_Source\PSoC4/CyLFClk.h **** #if (CY_IP_WCO)
 122:.\Generated_Source\PSoC4/CyLFClk.h ****     /* WCO Configuration Register */
 123:.\Generated_Source\PSoC4/CyLFClk.h ****     #define CY_SYS_CLK_WCO_CONFIG_LPM_EN                (( uint32 )(( uint32 )0x01u <<  0u))
 124:.\Generated_Source\PSoC4/CyLFClk.h ****     #define CY_SYS_CLK_WCO_CONFIG_LPM_AUTO              (( uint32 )(( uint32 )0x01u <<  1u))
 125:.\Generated_Source\PSoC4/CyLFClk.h ****     #define CY_SYS_CLK_WCO_CONFIG_LPM_ENABLE            (( uint32 )(( uint32 )0x01u << 31u))
 126:.\Generated_Source\PSoC4/CyLFClk.h **** 
 127:.\Generated_Source\PSoC4/CyLFClk.h ****     /* WCO Status Register */
 128:.\Generated_Source\PSoC4/CyLFClk.h ****     #define CY_SYS_CLK_WCO_STATUS_OUT_BLNK_A            (( uint32 )(( uint32 )0x01u <<  0u))
 129:.\Generated_Source\PSoC4/CyLFClk.h **** 
 130:.\Generated_Source\PSoC4/CyLFClk.h ****     /* WCO Trim Register */
 131:.\Generated_Source\PSoC4/CyLFClk.h ****     #define CY_SYS_CLK_WCO_TRIM_XGM_MASK                (( uint32 ) 0x07u)
 132:.\Generated_Source\PSoC4/CyLFClk.h ****     #define CY_SYS_CLK_WCO_TRIM_XGM_SHIFT               (( uint32 ) 0x00u)
 133:.\Generated_Source\PSoC4/CyLFClk.h **** 
 134:.\Generated_Source\PSoC4/CyLFClk.h ****     #define CY_SYS_CLK_WCO_TRIM_XGM_3370NA              (( uint32 ) 0x00u)
 135:.\Generated_Source\PSoC4/CyLFClk.h ****     #define CY_SYS_CLK_WCO_TRIM_XGM_2620NA              (( uint32 ) 0x01u)
 136:.\Generated_Source\PSoC4/CyLFClk.h ****     #define CY_SYS_CLK_WCO_TRIM_XGM_2250NA              (( uint32 ) 0x02u)
 137:.\Generated_Source\PSoC4/CyLFClk.h ****     #define CY_SYS_CLK_WCO_TRIM_XGM_1500NA              (( uint32 ) 0x03u)
 138:.\Generated_Source\PSoC4/CyLFClk.h ****     #define CY_SYS_CLK_WCO_TRIM_XGM_1870NA              (( uint32 ) 0x04u)
 139:.\Generated_Source\PSoC4/CyLFClk.h ****     #define CY_SYS_CLK_WCO_TRIM_XGM_1120NA              (( uint32 ) 0x05u)
 140:.\Generated_Source\PSoC4/CyLFClk.h ****     #define CY_SYS_CLK_WCO_TRIM_XGM_750NA               (( uint32 ) 0x06u)
 141:.\Generated_Source\PSoC4/CyLFClk.h ****     #define CY_SYS_CLK_WCO_TRIM_XGM_0NA                 (( uint32 ) 0x07u)
 142:.\Generated_Source\PSoC4/CyLFClk.h **** 
 143:.\Generated_Source\PSoC4/CyLFClk.h ****     #define CY_SYS_CLK_WCO_TRIM_GM_MASK                 (( uint32 )(( uint32 )0x03u << 4u))
 144:.\Generated_Source\PSoC4/CyLFClk.h ****     #define CY_SYS_CLK_WCO_TRIM_GM_SHIFT                (( uint32 ) 0x04u)
 145:.\Generated_Source\PSoC4/CyLFClk.h ****     #define CY_SYS_CLK_WCO_TRIM_GM_HPM                  (( uint32 ) 0x01u)
 146:.\Generated_Source\PSoC4/CyLFClk.h ****     #define CY_SYS_CLK_WCO_TRIM_GM_LPM                  (( uint32 ) 0x02u)
 147:.\Generated_Source\PSoC4/CyLFClk.h **** #endif  /* (CY_IP_WCO) */
 148:.\Generated_Source\PSoC4/CyLFClk.h **** 
 149:.\Generated_Source\PSoC4/CyLFClk.h **** 
 150:.\Generated_Source\PSoC4/CyLFClk.h **** /*******************************************************************************
 151:.\Generated_Source\PSoC4/CyLFClk.h **** * WDT API Constants
 152:.\Generated_Source\PSoC4/CyLFClk.h **** *******************************************************************************/
 153:.\Generated_Source\PSoC4/CyLFClk.h **** #if(CY_IP_SRSSV2)
 154:.\Generated_Source\PSoC4/CyLFClk.h ****     #define CY_SYS_WDT_MODE_NONE                (0u)
 155:.\Generated_Source\PSoC4/CyLFClk.h ****     #define CY_SYS_WDT_MODE_INT                 (1u)
ARM GAS  C:\Users\Tim\AppData\Local\Temp\cc4ChIIk.s 			page 14


 156:.\Generated_Source\PSoC4/CyLFClk.h ****     #define CY_SYS_WDT_MODE_RESET               (2u)
 157:.\Generated_Source\PSoC4/CyLFClk.h ****     #define CY_SYS_WDT_MODE_INT_RESET           (3u)
 158:.\Generated_Source\PSoC4/CyLFClk.h **** 
 159:.\Generated_Source\PSoC4/CyLFClk.h ****     #define CY_SYS_WDT_COUNTER0_MASK            ((uint32)((uint32)0x01u))
 160:.\Generated_Source\PSoC4/CyLFClk.h ****     #define CY_SYS_WDT_COUNTER1_MASK            ((uint32)((uint32)0x01u << 8u))
 161:.\Generated_Source\PSoC4/CyLFClk.h ****     #define CY_SYS_WDT_COUNTER2_MASK            ((uint32)((uint32)0x01u << 16u))
 162:.\Generated_Source\PSoC4/CyLFClk.h **** 
 163:.\Generated_Source\PSoC4/CyLFClk.h ****     #define CY_SYS_WDT_CASCADE_NONE             ((uint32)0x00u)
 164:.\Generated_Source\PSoC4/CyLFClk.h ****     #define CY_SYS_WDT_CASCADE_01               ((uint32)0x01u << 3u)
 165:.\Generated_Source\PSoC4/CyLFClk.h ****     #define CY_SYS_WDT_CASCADE_12               ((uint32)0x01u << 11u)
 166:.\Generated_Source\PSoC4/CyLFClk.h **** 
 167:.\Generated_Source\PSoC4/CyLFClk.h ****     #define CY_SYS_WDT_COUNTER0_INT             ((uint32)0x01u << 2u)
 168:.\Generated_Source\PSoC4/CyLFClk.h ****     #define CY_SYS_WDT_COUNTER1_INT             ((uint32)0x01u << 10u)
 169:.\Generated_Source\PSoC4/CyLFClk.h ****     #define CY_SYS_WDT_COUNTER2_INT             ((uint32)0x01u << 18u)
 170:.\Generated_Source\PSoC4/CyLFClk.h **** 
 171:.\Generated_Source\PSoC4/CyLFClk.h ****     #define CY_SYS_WDT_COUNTER0_RESET           ((uint32)0x01u << 3u)
 172:.\Generated_Source\PSoC4/CyLFClk.h ****     #define CY_SYS_WDT_COUNTER1_RESET           ((uint32)0x01u << 11u)
 173:.\Generated_Source\PSoC4/CyLFClk.h ****     #define CY_SYS_WDT_COUNTER2_RESET           ((uint32)0x01u << 19u)
 174:.\Generated_Source\PSoC4/CyLFClk.h ****     #define CY_SYS_WDT_COUNTERS_RESET           (CY_SYS_WDT_COUNTER0_RESET |\
 175:.\Generated_Source\PSoC4/CyLFClk.h ****                                                  CY_SYS_WDT_COUNTER1_RESET |\
 176:.\Generated_Source\PSoC4/CyLFClk.h ****                                                  CY_SYS_WDT_COUNTER2_RESET)
 177:.\Generated_Source\PSoC4/CyLFClk.h **** 
 178:.\Generated_Source\PSoC4/CyLFClk.h ****     #define CY_SYS_WDT_COUNTER0                 (0x00u)
 179:.\Generated_Source\PSoC4/CyLFClk.h ****     #define CY_SYS_WDT_COUNTER1                 (0x01u)
 180:.\Generated_Source\PSoC4/CyLFClk.h ****     #define CY_SYS_WDT_COUNTER2                 (0x02u)
 181:.\Generated_Source\PSoC4/CyLFClk.h **** 
 182:.\Generated_Source\PSoC4/CyLFClk.h ****     #define CY_SYS_WDT_COUNTER0_OFFSET            (0x00u)
 183:.\Generated_Source\PSoC4/CyLFClk.h ****     #define CY_SYS_WDT_COUNTER1_OFFSET            (0x02u)
 184:.\Generated_Source\PSoC4/CyLFClk.h ****     #define CY_SYS_WDT_COUNTER2_OFFSET            (0x04u)
 185:.\Generated_Source\PSoC4/CyLFClk.h **** 
 186:.\Generated_Source\PSoC4/CyLFClk.h ****     #define CY_SYS_WDT_MODE_MASK                ((uint32)(0x03u))
 187:.\Generated_Source\PSoC4/CyLFClk.h **** 
 188:.\Generated_Source\PSoC4/CyLFClk.h ****     #define CY_SYS_WDT_CLK_LOCK_BITS_MASK       ((uint32)0x03u << 14u)
 189:.\Generated_Source\PSoC4/CyLFClk.h ****     #define CY_SYS_WDT_CLK_LOCK_BIT0            ((uint32)0x01u << 14u)
 190:.\Generated_Source\PSoC4/CyLFClk.h ****     #define CY_SYS_WDT_CLK_LOCK_BIT1            ((uint32)0x01u << 15u)
 191:.\Generated_Source\PSoC4/CyLFClk.h **** 
 192:.\Generated_Source\PSoC4/CyLFClk.h ****     #define CY_SYS_WDT_CONFIG_BITS2_MASK        (uint32)(0x1Fu)
 193:.\Generated_Source\PSoC4/CyLFClk.h ****     #define CY_SYS_WDT_CONFIG_BITS2_POS         (uint32)(24u)
 194:.\Generated_Source\PSoC4/CyLFClk.h ****     #define CY_SYS_WDT_LOWER_16BITS_MASK        (uint32)(0x0000FFFFu)
 195:.\Generated_Source\PSoC4/CyLFClk.h ****     #define CY_SYS_WDT_HIGHER_16BITS_MASK       (uint32)(0xFFFF0000u)
 196:.\Generated_Source\PSoC4/CyLFClk.h ****     #define CY_SYS_WDT_COUNTERS_MAX             (0x03u)
 197:.\Generated_Source\PSoC4/CyLFClk.h ****     #define CY_SYS_WDT_CNT_SHIFT                (0x08u)
 198:.\Generated_Source\PSoC4/CyLFClk.h ****     #define CY_SYS_WDT_CNT_MATCH_CLR_SHIFT      (0x02u)
 199:.\Generated_Source\PSoC4/CyLFClk.h ****     #define CY_SYS_WDT_CNT_STTS_SHIFT           (0x01u)
 200:.\Generated_Source\PSoC4/CyLFClk.h ****     #define CY_SYS_WDT_CNT_MATCH_SHIFT          (0x10u)
 201:.\Generated_Source\PSoC4/CyLFClk.h **** 
 202:.\Generated_Source\PSoC4/CyLFClk.h ****     #define CY_WDT_NUM_OF_WDT                    (3u)
 203:.\Generated_Source\PSoC4/CyLFClk.h ****     #define CY_WDT_NUM_OF_CALLBACKS             (3u)
 204:.\Generated_Source\PSoC4/CyLFClk.h **** 
 205:.\Generated_Source\PSoC4/CyLFClk.h ****     #if (CY_PSOC4_4100 || CY_PSOC4_4200)
 206:.\Generated_Source\PSoC4/CyLFClk.h ****         #define CY_SYS_WDT_1LFCLK_DELAY_US      ((uint16)( 67u))
 207:.\Generated_Source\PSoC4/CyLFClk.h ****         #define CY_SYS_WDT_3LFCLK_DELAY_US      ((uint16)(201u))
 208:.\Generated_Source\PSoC4/CyLFClk.h ****     #endif /* (CY_PSOC4_4100 || CY_PSOC4_4200) */
 209:.\Generated_Source\PSoC4/CyLFClk.h **** 
 210:.\Generated_Source\PSoC4/CyLFClk.h ****     #if (CY_PSOC4_4000)
 211:.\Generated_Source\PSoC4/CyLFClk.h ****         #define CY_SYS_WDT_1LFCLK_DELAY_US      ((uint16)( 50u))
 212:.\Generated_Source\PSoC4/CyLFClk.h ****         #define CY_SYS_WDT_3LFCLK_DELAY_US      ((uint16)(150u))
ARM GAS  C:\Users\Tim\AppData\Local\Temp\cc4ChIIk.s 			page 15


 213:.\Generated_Source\PSoC4/CyLFClk.h ****     #endif /* (CY_PSOC4_4000) */
 214:.\Generated_Source\PSoC4/CyLFClk.h **** 
 215:.\Generated_Source\PSoC4/CyLFClk.h ****     #if (CY_IP_WCO)
 216:.\Generated_Source\PSoC4/CyLFClk.h **** 
 217:.\Generated_Source\PSoC4/CyLFClk.h ****         #define CY_SYS_WDT_1LFCLK_DELAY_US      \
 218:.\Generated_Source\PSoC4/CyLFClk.h ****             ((CY_SYS_CLK_LFCLK_SRC_ILO == (CY_SYS_WDT_CONFIG_REG & CY_SYS_CLK_LFCLK_SEL_MASK)) ? \
 219:.\Generated_Source\PSoC4/CyLFClk.h ****                                                 ((uint16)(67u)) : \
 220:.\Generated_Source\PSoC4/CyLFClk.h ****                                                 ((uint16)(31u)))
 221:.\Generated_Source\PSoC4/CyLFClk.h **** 
 222:.\Generated_Source\PSoC4/CyLFClk.h ****         #define CY_SYS_WDT_3LFCLK_DELAY_US      \
 223:.\Generated_Source\PSoC4/CyLFClk.h ****             ((CY_SYS_CLK_LFCLK_SRC_ILO == (CY_SYS_WDT_CONFIG_REG & CY_SYS_CLK_LFCLK_SEL_MASK)) ? \
 224:.\Generated_Source\PSoC4/CyLFClk.h ****                                                 ((uint16)(201u)) : \
 225:.\Generated_Source\PSoC4/CyLFClk.h ****                                                 ((uint16)(93u)))
 226:.\Generated_Source\PSoC4/CyLFClk.h **** 
 227:.\Generated_Source\PSoC4/CyLFClk.h ****     #endif /* (CY_IP_WCO) */
 228:.\Generated_Source\PSoC4/CyLFClk.h **** 
 229:.\Generated_Source\PSoC4/CyLFClk.h **** #else
 230:.\Generated_Source\PSoC4/CyLFClk.h ****     #define CY_SYS_WDT_KEY                      ((uint32)(0xACED8865u))
 231:.\Generated_Source\PSoC4/CyLFClk.h ****     #define CY_SYS_WDT_MATCH_MASK               ((uint32)(0x0000FFFFu))
 232:.\Generated_Source\PSoC4/CyLFClk.h ****     #define CY_SYS_WDT_IGNORE_BITS_MASK         ((uint32)(0x000F0000u))
 233:.\Generated_Source\PSoC4/CyLFClk.h ****     #define CY_SYS_WDT_IGNORE_BITS_SHIFT        ((uint32)(16u))
 234:.\Generated_Source\PSoC4/CyLFClk.h ****     #define CY_SYS_WDT_LOWER_BIT_MASK           ((uint32)(0x00000001u))
 235:.\Generated_Source\PSoC4/CyLFClk.h **** 
 236:.\Generated_Source\PSoC4/CyLFClk.h ****     #define CY_SYS_WDT_COUNTER0                 (0x00u)
 237:.\Generated_Source\PSoC4/CyLFClk.h **** 
 238:.\Generated_Source\PSoC4/CyLFClk.h ****     #define CY_WDT_NUM_OF_WDT                   (1u)
 239:.\Generated_Source\PSoC4/CyLFClk.h ****     #define CY_WDT_NUM_OF_CALLBACKS             (3u)
 240:.\Generated_Source\PSoC4/CyLFClk.h **** #endif  /* (CY_IP_SRSSV2) */
 241:.\Generated_Source\PSoC4/CyLFClk.h **** 
 242:.\Generated_Source\PSoC4/CyLFClk.h **** #define CY_INT_WDT_IRQN                            (7u)
 243:.\Generated_Source\PSoC4/CyLFClk.h **** 
 244:.\Generated_Source\PSoC4/CyLFClk.h **** /* CySysXTAL_32KHZ_SetPowerMode() */
 245:.\Generated_Source\PSoC4/CyLFClk.h **** #define CY_SYS_CLK_WCO_HPM                   (0x0u)
 246:.\Generated_Source\PSoC4/CyLFClk.h **** #if(0u == (CY_PSOC4_4100M || CY_PSOC4_4200M))
 247:.\Generated_Source\PSoC4/CyLFClk.h ****     #define CY_SYS_CLK_WCO_LPM               (0x1u)
 248:.\Generated_Source\PSoC4/CyLFClk.h **** #endif /* (0u == (CY_PSOC4_4100M || CY_PSOC4_4200M)) */
 249:.\Generated_Source\PSoC4/CyLFClk.h **** 
 250:.\Generated_Source\PSoC4/CyLFClk.h **** 
 251:.\Generated_Source\PSoC4/CyLFClk.h **** #define CY_SYS_CLK_ILO_CONFIG_REG           (*(reg32 *) CYREG_CLK_ILO_CONFIG)
 252:.\Generated_Source\PSoC4/CyLFClk.h **** #define CY_SYS_CLK_ILO_CONFIG_PTR           ( (reg32 *) CYREG_CLK_ILO_CONFIG)
 253:.\Generated_Source\PSoC4/CyLFClk.h **** 
 254:.\Generated_Source\PSoC4/CyLFClk.h **** #if(CY_IP_SRSSV2)
 255:.\Generated_Source\PSoC4/CyLFClk.h ****     #define CY_SYS_CLK_ILO_TRIM_REG             (*(reg32 *) CYREG_CLK_ILO_TRIM)
 256:.\Generated_Source\PSoC4/CyLFClk.h ****     #define CY_SYS_CLK_ILO_TRIM_PTR             ( (reg32 *) CYREG_CLK_ILO_TRIM)
 257:.\Generated_Source\PSoC4/CyLFClk.h **** #endif  /* (CY_IP_SRSSV2) */
 258:.\Generated_Source\PSoC4/CyLFClk.h **** 
 259:.\Generated_Source\PSoC4/CyLFClk.h **** #if (CY_IP_WCO)
 260:.\Generated_Source\PSoC4/CyLFClk.h **** 
 261:.\Generated_Source\PSoC4/CyLFClk.h ****     #if (CY_PSOC4_4100BL || CY_PSOC4_4200BL)
 262:.\Generated_Source\PSoC4/CyLFClk.h ****         /* WCO Status Register */
 263:.\Generated_Source\PSoC4/CyLFClk.h ****         #define CY_SYS_CLK_WCO_STATUS_REG               (*(reg32 *) CYREG_BLE_BLESS_WCO_STATUS)
 264:.\Generated_Source\PSoC4/CyLFClk.h ****         #define CY_SYS_CLK_WCO_STATUS_PTR               ( (reg32 *) CYREG_BLE_BLESS_WCO_STATUS)
 265:.\Generated_Source\PSoC4/CyLFClk.h **** 
 266:.\Generated_Source\PSoC4/CyLFClk.h ****         /* WCO Configuration Register */
 267:.\Generated_Source\PSoC4/CyLFClk.h ****         #define CY_SYS_CLK_WCO_CONFIG_REG               (*(reg32 *) CYREG_BLE_BLESS_WCO_CONFIG)
 268:.\Generated_Source\PSoC4/CyLFClk.h ****         #define CY_SYS_CLK_WCO_CONFIG_PTR               ( (reg32 *) CYREG_BLE_BLESS_WCO_CONFIG)
 269:.\Generated_Source\PSoC4/CyLFClk.h **** 
ARM GAS  C:\Users\Tim\AppData\Local\Temp\cc4ChIIk.s 			page 16


 270:.\Generated_Source\PSoC4/CyLFClk.h ****         /* WCO Trim Register */
 271:.\Generated_Source\PSoC4/CyLFClk.h ****         #define CY_SYS_CLK_WCO_TRIM_REG                 (*(reg32 *) CYREG_BLE_BLESS_WCO_TRIM)
 272:.\Generated_Source\PSoC4/CyLFClk.h ****         #define CY_SYS_CLK_WCO_TRIM_PTR                 ( (reg32 *) CYREG_BLE_BLESS_WCO_TRIM)
 273:.\Generated_Source\PSoC4/CyLFClk.h ****     #else   /* (CY_PSOC4_4100M || CY_PSOC4_4200M) */
 274:.\Generated_Source\PSoC4/CyLFClk.h ****         /* WCO Status Register */
 275:.\Generated_Source\PSoC4/CyLFClk.h ****         #define CY_SYS_CLK_WCO_STATUS_REG               (*(reg32 *) CYREG_WCO_STATUS)
 276:.\Generated_Source\PSoC4/CyLFClk.h ****         #define CY_SYS_CLK_WCO_STATUS_PTR               ( (reg32 *) CYREG_WCO_STATUS)
 277:.\Generated_Source\PSoC4/CyLFClk.h **** 
 278:.\Generated_Source\PSoC4/CyLFClk.h ****         /* WCO Configuration Register */
 279:.\Generated_Source\PSoC4/CyLFClk.h ****         #define CY_SYS_CLK_WCO_CONFIG_REG               (*(reg32 *) CYREG_WCO_CONFIG)
 280:.\Generated_Source\PSoC4/CyLFClk.h ****         #define CY_SYS_CLK_WCO_CONFIG_PTR               ( (reg32 *) CYREG_WCO_CONFIG)
 281:.\Generated_Source\PSoC4/CyLFClk.h **** 
 282:.\Generated_Source\PSoC4/CyLFClk.h ****         /* WCO Trim Register */
 283:.\Generated_Source\PSoC4/CyLFClk.h ****         #define CY_SYS_CLK_WCO_TRIM_REG                 (*(reg32 *) CYREG_WCO_TRIM)
 284:.\Generated_Source\PSoC4/CyLFClk.h ****         #define CY_SYS_CLK_WCO_TRIM_PTR                 ( (reg32 *) CYREG_WCO_TRIM)
 285:.\Generated_Source\PSoC4/CyLFClk.h ****     #endif /* (CY_PSOC4_4100BL || CY_PSOC4_4200BL) */
 286:.\Generated_Source\PSoC4/CyLFClk.h **** 
 287:.\Generated_Source\PSoC4/CyLFClk.h **** #endif  /* (CY_IP_WCO) */
 288:.\Generated_Source\PSoC4/CyLFClk.h **** 
 289:.\Generated_Source\PSoC4/CyLFClk.h **** 
 290:.\Generated_Source\PSoC4/CyLFClk.h **** /*******************************************************************************
 291:.\Generated_Source\PSoC4/CyLFClk.h **** * WDT API Registers
 292:.\Generated_Source\PSoC4/CyLFClk.h **** *******************************************************************************/
 293:.\Generated_Source\PSoC4/CyLFClk.h **** #if(CY_IP_SRSSV2)
 294:.\Generated_Source\PSoC4/CyLFClk.h ****     #define CY_SYS_WDT_CTRLOW_REG               (*(reg32 *) CYREG_WDT_CTRLOW)
 295:.\Generated_Source\PSoC4/CyLFClk.h ****     #define CY_SYS_WDT_CTRLOW_PTR               ( (reg32 *) CYREG_WDT_CTRLOW)
 296:.\Generated_Source\PSoC4/CyLFClk.h **** 
 297:.\Generated_Source\PSoC4/CyLFClk.h ****     #define CY_SYS_WDT_CTRHIGH_REG              (*(reg32 *) CYREG_WDT_CTRHIGH)
 298:.\Generated_Source\PSoC4/CyLFClk.h ****     #define CY_SYS_WDT_CTRHIGH_PTR              ( (reg32 *) CYREG_WDT_CTRHIGH)
 299:.\Generated_Source\PSoC4/CyLFClk.h **** 
 300:.\Generated_Source\PSoC4/CyLFClk.h ****     #define CY_SYS_WDT_MATCH_REG                (*(reg32 *) CYREG_WDT_MATCH)
 301:.\Generated_Source\PSoC4/CyLFClk.h ****     #define CY_SYS_WDT_MATCH_PTR                ( (reg32 *) CYREG_WDT_MATCH)
 302:.\Generated_Source\PSoC4/CyLFClk.h **** 
 303:.\Generated_Source\PSoC4/CyLFClk.h ****     #define CY_SYS_WDT_CONFIG_REG               (*(reg32 *) CYREG_WDT_CONFIG)
 304:.\Generated_Source\PSoC4/CyLFClk.h ****     #define CY_SYS_WDT_CONFIG_PTR               ( (reg32 *) CYREG_WDT_CONFIG)
 305:.\Generated_Source\PSoC4/CyLFClk.h **** 
 306:.\Generated_Source\PSoC4/CyLFClk.h ****     #define CY_SYS_WDT_CONTROL_REG              (*(reg32 *) CYREG_WDT_CONTROL)
 307:.\Generated_Source\PSoC4/CyLFClk.h ****     #define CY_SYS_WDT_CONTROL_PTR              ( (reg32 *) CYREG_WDT_CONTROL)
 308:.\Generated_Source\PSoC4/CyLFClk.h **** #else
 309:.\Generated_Source\PSoC4/CyLFClk.h ****     #define CY_SYS_WDT_DISABLE_KEY_REG          (*(reg32 *) CYREG_WDT_DISABLE_KEY)
 310:.\Generated_Source\PSoC4/CyLFClk.h ****     #define CY_SYS_WDT_DISABLE_KEY_PTR          ( (reg32 *) CYREG_WDT_DISABLE_KEY)
 311:.\Generated_Source\PSoC4/CyLFClk.h **** 
 312:.\Generated_Source\PSoC4/CyLFClk.h ****     #define CY_SYS_WDT_MATCH_REG                (*(reg32 *) CYREG_WDT_MATCH)
 313:.\Generated_Source\PSoC4/CyLFClk.h ****     #define CY_SYS_WDT_MATCH_PTR                ( (reg32 *) CYREG_WDT_MATCH)
 314:.\Generated_Source\PSoC4/CyLFClk.h **** 
 315:.\Generated_Source\PSoC4/CyLFClk.h ****     #define CY_SYS_WDT_COUNTER_REG              (*(reg32 *) CYREG_WDT_COUNTER)
 316:.\Generated_Source\PSoC4/CyLFClk.h ****     #define CY_SYS_WDT_COUNTER_PTR              ( (reg32 *) CYREG_WDT_COUNTER)
 317:.\Generated_Source\PSoC4/CyLFClk.h **** 
 318:.\Generated_Source\PSoC4/CyLFClk.h ****     #define CY_SYS_SRSS_INTR_REG                (*(reg32 *) CYREG_SRSS_INTR)
 319:.\Generated_Source\PSoC4/CyLFClk.h ****     #define CY_SYS_SRSS_INTR_PTR                ( (reg32 *) CYREG_SRSS_INTR)
 320:.\Generated_Source\PSoC4/CyLFClk.h **** 
 321:.\Generated_Source\PSoC4/CyLFClk.h ****     #define CY_SYS_SRSS_INTR_MASK_REG           (*(reg32 *) CYREG_SRSS_INTR_MASK)
 322:.\Generated_Source\PSoC4/CyLFClk.h ****     #define CY_SYS_SRSS_INTR_MASK_PTR           ( (reg32 *) CYREG_SRSS_INTR_MASK)
 323:.\Generated_Source\PSoC4/CyLFClk.h **** #endif  /* (CY_IP_SRSSV2) */
 324:.\Generated_Source\PSoC4/CyLFClk.h **** 
 325:.\Generated_Source\PSoC4/CyLFClk.h **** #if (CY_IP_WCO)
 326:.\Generated_Source\PSoC4/CyLFClk.h **** 
ARM GAS  C:\Users\Tim\AppData\Local\Temp\cc4ChIIk.s 			page 17


 327:.\Generated_Source\PSoC4/CyLFClk.h ****     /*******************************************************************************
 328:.\Generated_Source\PSoC4/CyLFClk.h ****     * Function Name: CySysClkWcoSetHighPowerMode
 329:.\Generated_Source\PSoC4/CyLFClk.h ****     ********************************************************************************
 330:.\Generated_Source\PSoC4/CyLFClk.h ****     *
 331:.\Generated_Source\PSoC4/CyLFClk.h ****     * Summary:
 332:.\Generated_Source\PSoC4/CyLFClk.h ****     *  Sets the high power mode for the 32 KHz WCO.
 333:.\Generated_Source\PSoC4/CyLFClk.h ****     *
 334:.\Generated_Source\PSoC4/CyLFClk.h ****     * Parameters:
 335:.\Generated_Source\PSoC4/CyLFClk.h ****     *  None.
 336:.\Generated_Source\PSoC4/CyLFClk.h ****     *
 337:.\Generated_Source\PSoC4/CyLFClk.h ****     * Return:
 338:.\Generated_Source\PSoC4/CyLFClk.h ****     *  None.
 339:.\Generated_Source\PSoC4/CyLFClk.h ****     *
 340:.\Generated_Source\PSoC4/CyLFClk.h ****     * Side Effects:
 341:.\Generated_Source\PSoC4/CyLFClk.h ****     *  None.
 342:.\Generated_Source\PSoC4/CyLFClk.h ****     *
 343:.\Generated_Source\PSoC4/CyLFClk.h ****     *******************************************************************************/
 344:.\Generated_Source\PSoC4/CyLFClk.h ****     static CY_INLINE void CySysClkWcoSetHighPowerMode(void)
 345:.\Generated_Source\PSoC4/CyLFClk.h ****     {
 346:.\Generated_Source\PSoC4/CyLFClk.h ****         /* Switch off low power mode for WCO */
 347:.\Generated_Source\PSoC4/CyLFClk.h ****         CY_SYS_CLK_WCO_CONFIG_REG &= (uint32) ~CY_SYS_CLK_WCO_CONFIG_LPM_EN;
 145              		.loc 2 347 0
 146 0002 0D4B     		ldr	r3, .L17
 147 0004 1A68     		ldr	r2, [r3]
 148 0006 0121     		mov	r1, #1
 149 0008 8A43     		bic	r2, r1
 150 000a 1A60     		str	r2, [r3]
 348:.\Generated_Source\PSoC4/CyLFClk.h ****         
 349:.\Generated_Source\PSoC4/CyLFClk.h ****         /* Switch off auto low power mode in WCO */
 350:.\Generated_Source\PSoC4/CyLFClk.h ****         CY_SYS_CLK_WCO_CONFIG_REG &= ((uint32)~CY_SYS_CLK_WCO_CONFIG_LPM_AUTO);
 151              		.loc 2 350 0
 152 000c 1A68     		ldr	r2, [r3]
 153 000e 0220     		mov	r0, #2
 154 0010 8243     		bic	r2, r0
 155 0012 1A60     		str	r2, [r3]
 351:.\Generated_Source\PSoC4/CyLFClk.h **** 
 352:.\Generated_Source\PSoC4/CyLFClk.h ****         /* Restore WCO trim register HPM settings */
 353:.\Generated_Source\PSoC4/CyLFClk.h ****         CY_SYS_CLK_WCO_TRIM_REG = (CY_SYS_CLK_WCO_TRIM_REG & (uint32)(~CY_SYS_CLK_WCO_TRIM_GM_MASK)
 156              		.loc 2 353 0
 157 0014 094A     		ldr	r2, .L17+4
 158 0016 1068     		ldr	r0, [r2]
 159 0018 3024     		mov	r4, #48
 160 001a A043     		bic	r0, r4
 354:.\Generated_Source\PSoC4/CyLFClk.h ****                     | (uint32)(CY_SYS_CLK_WCO_TRIM_GM_HPM << CY_SYS_CLK_WCO_TRIM_GM_SHIFT);
 161              		.loc 2 354 0
 162 001c 203C     		sub	r4, r4, #32
 163 001e 2043     		orr	r0, r4
 353:.\Generated_Source\PSoC4/CyLFClk.h ****                     | (uint32)(CY_SYS_CLK_WCO_TRIM_GM_HPM << CY_SYS_CLK_WCO_TRIM_GM_SHIFT);
 164              		.loc 2 353 0
 165 0020 1060     		str	r0, [r2]
 355:.\Generated_Source\PSoC4/CyLFClk.h ****         CY_SYS_CLK_WCO_TRIM_REG = (CY_SYS_CLK_WCO_TRIM_REG & (uint32)(~CY_SYS_CLK_WCO_TRIM_XGM_MASK
 166              		.loc 2 355 0
 167 0022 1068     		ldr	r0, [r2]
 168 0024 093C     		sub	r4, r4, #9
 169 0026 A043     		bic	r0, r4
 356:.\Generated_Source\PSoC4/CyLFClk.h ****                     | (uint32)(CY_SYS_CLK_WCO_TRIM_XGM_2620NA << CY_SYS_CLK_WCO_TRIM_XGM_SHIFT);
 170              		.loc 2 356 0
ARM GAS  C:\Users\Tim\AppData\Local\Temp\cc4ChIIk.s 			page 18


 171 0028 0143     		orr	r1, r0
 355:.\Generated_Source\PSoC4/CyLFClk.h ****         CY_SYS_CLK_WCO_TRIM_REG = (CY_SYS_CLK_WCO_TRIM_REG & (uint32)(~CY_SYS_CLK_WCO_TRIM_XGM_MASK
 172              		.loc 2 355 0
 173 002a 1160     		str	r1, [r2]
 174              	.LBE5:
 175              	.LBE4:
 273:.\Generated_Source\PSoC4/CyLFClk.c ****     }
 176              		.loc 1 273 0
 177 002c 1A68     		ldr	r2, [r3]
 178 002e 8021     		mov	r1, #128
 179 0030 0906     		lsl	r1, r1, #24
 180 0032 0A43     		orr	r2, r1
 181 0034 1A60     		str	r2, [r3]
 274:.\Generated_Source\PSoC4/CyLFClk.c **** 
 182              		.loc 1 274 0
 183              		@ sp needed
 184 0036 10BD     		pop	{r4, pc}
 185              	.L18:
 186              		.align	2
 187              	.L17:
 188 0038 00002240 		.word	1075970048
 189 003c 000F2240 		.word	1075973888
 190              		.cfi_endproc
 191              	.LFE6:
 192              		.size	CySysClkWcoStart, .-CySysClkWcoStart
 193              		.section	.text.CySysClkWcoEnabled,"ax",%progbits
 194              		.align	2
 195              		.global	CySysClkWcoEnabled
 196              		.code	16
 197              		.thumb_func
 198              		.type	CySysClkWcoEnabled, %function
 199              	CySysClkWcoEnabled:
 200              	.LFB8:
 329:.\Generated_Source\PSoC4/CyLFClk.c ****         return ((0u != (CY_SYS_CLK_WCO_CONFIG_REG & (uint32)(CY_SYS_CLK_WCO_CONFIG_LPM_ENABLE))) ?
 201              		.loc 1 329 0
 202              		.cfi_startproc
 330:.\Generated_Source\PSoC4/CyLFClk.c ****                 (uint32) 1u :
 203              		.loc 1 330 0
 204 0000 034B     		ldr	r3, .L22
 205 0002 1B68     		ldr	r3, [r3]
 331:.\Generated_Source\PSoC4/CyLFClk.c ****                 (uint32) 0u);
 206              		.loc 1 331 0
 207 0004 002B     		cmp	r3, #0
 208 0006 01DA     		bge	.L21
 209 0008 0120     		mov	r0, #1
 210 000a 00E0     		b	.L20
 211              	.L21:
 212 000c 0020     		mov	r0, #0
 213              	.L20:
 333:.\Generated_Source\PSoC4/CyLFClk.c **** 
 214              		.loc 1 333 0
 215              		@ sp needed
 216 000e 7047     		bx	lr
 217              	.L23:
 218              		.align	2
 219              	.L22:
 220 0010 00002240 		.word	1075970048
ARM GAS  C:\Users\Tim\AppData\Local\Temp\cc4ChIIk.s 			page 19


 221              		.cfi_endproc
 222              	.LFE8:
 223              		.size	CySysClkWcoEnabled, .-CySysClkWcoEnabled
 224              		.section	.text.CySysClkWcoSetPowerMode,"ax",%progbits
 225              		.align	2
 226              		.global	CySysClkWcoSetPowerMode
 227              		.code	16
 228              		.thumb_func
 229              		.type	CySysClkWcoSetPowerMode, %function
 230              	CySysClkWcoSetPowerMode:
 231              	.LFB9:
 358:.\Generated_Source\PSoC4/CyLFClk.c ****         uint32 status;
 232              		.loc 1 358 0
 233              		.cfi_startproc
 234              	.LVL1:
 235 0000 10B5     		push	{r4, lr}
 236              		.cfi_def_cfa_offset 8
 237              		.cfi_offset 4, -8
 238              		.cfi_offset 14, -4
 361:.\Generated_Source\PSoC4/CyLFClk.c **** 
 239              		.loc 1 361 0
 240 0002 104B     		ldr	r3, .L29
 241 0004 1B68     		ldr	r3, [r3]
 242 0006 0124     		mov	r4, #1
 243 0008 1C40     		and	r4, r3
 244              	.LVL2:
 363:.\Generated_Source\PSoC4/CyLFClk.c ****         {
 245              		.loc 1 363 0
 246 000a 0028     		cmp	r0, #0
 247 000c 15D1     		bne	.L28
 248              	.LBB8:
 249              	.LBB9:
 347:.\Generated_Source\PSoC4/CyLFClk.h ****         
 250              		.loc 2 347 0
 251 000e 0D4B     		ldr	r3, .L29
 252 0010 1968     		ldr	r1, [r3]
 253 0012 0122     		mov	r2, #1
 254 0014 9143     		bic	r1, r2
 255 0016 1960     		str	r1, [r3]
 350:.\Generated_Source\PSoC4/CyLFClk.h **** 
 256              		.loc 2 350 0
 257 0018 1968     		ldr	r1, [r3]
 258 001a 0230     		add	r0, r0, #2
 259              	.LVL3:
 260 001c 8143     		bic	r1, r0
 261 001e 1960     		str	r1, [r3]
 353:.\Generated_Source\PSoC4/CyLFClk.h ****                     | (uint32)(CY_SYS_CLK_WCO_TRIM_GM_HPM << CY_SYS_CLK_WCO_TRIM_GM_SHIFT);
 262              		.loc 2 353 0
 263 0020 094B     		ldr	r3, .L29+4
 264 0022 1968     		ldr	r1, [r3]
 265 0024 2E30     		add	r0, r0, #46
 266              	.LVL4:
 267 0026 8143     		bic	r1, r0
 354:.\Generated_Source\PSoC4/CyLFClk.h ****         CY_SYS_CLK_WCO_TRIM_REG = (CY_SYS_CLK_WCO_TRIM_REG & (uint32)(~CY_SYS_CLK_WCO_TRIM_XGM_MASK
 268              		.loc 2 354 0
 269 0028 2038     		sub	r0, r0, #32
 270              	.LVL5:
ARM GAS  C:\Users\Tim\AppData\Local\Temp\cc4ChIIk.s 			page 20


 271 002a 0143     		orr	r1, r0
 353:.\Generated_Source\PSoC4/CyLFClk.h ****                     | (uint32)(CY_SYS_CLK_WCO_TRIM_GM_HPM << CY_SYS_CLK_WCO_TRIM_GM_SHIFT);
 272              		.loc 2 353 0
 273 002c 1960     		str	r1, [r3]
 355:.\Generated_Source\PSoC4/CyLFClk.h ****                     | (uint32)(CY_SYS_CLK_WCO_TRIM_XGM_2620NA << CY_SYS_CLK_WCO_TRIM_XGM_SHIFT);
 274              		.loc 2 355 0
 275 002e 1968     		ldr	r1, [r3]
 276 0030 0938     		sub	r0, r0, #9
 277              	.LVL6:
 278 0032 8143     		bic	r1, r0
 279              		.loc 2 356 0
 280 0034 0A43     		orr	r2, r1
 355:.\Generated_Source\PSoC4/CyLFClk.h ****                     | (uint32)(CY_SYS_CLK_WCO_TRIM_XGM_2620NA << CY_SYS_CLK_WCO_TRIM_XGM_SHIFT);
 281              		.loc 2 355 0
 282 0036 1A60     		str	r2, [r3]
 283 0038 02E0     		b	.L27
 284              	.LVL7:
 285              	.L28:
 286              	.LBE9:
 287              	.LBE8:
 376:.\Generated_Source\PSoC4/CyLFClk.c ****             break;
 288              		.loc 1 376 0 discriminator 1
 289 003a 0020     		mov	r0, #0
 290              	.LVL8:
 291 003c FFF7FEFF 		bl	CyHalt
 292              	.LVL9:
 293              	.L27:
 381:.\Generated_Source\PSoC4/CyLFClk.c **** 
 294              		.loc 1 381 0
 295 0040 201C     		mov	r0, r4
 296              		@ sp needed
 297              	.LVL10:
 298 0042 10BD     		pop	{r4, pc}
 299              	.L30:
 300              		.align	2
 301              	.L29:
 302 0044 00002240 		.word	1075970048
 303 0048 000F2240 		.word	1075973888
 304              		.cfi_endproc
 305              	.LFE9:
 306              		.size	CySysClkWcoSetPowerMode, .-CySysClkWcoSetPowerMode
 307              		.section	.text.CySysWdtLock,"ax",%progbits
 308              		.align	2
 309              		.global	CySysWdtLock
 310              		.code	16
 311              		.thumb_func
 312              		.type	CySysWdtLock, %function
 313              	CySysWdtLock:
 314              	.LFB10:
 409:.\Generated_Source\PSoC4/CyLFClk.c ****         uint8 interruptState;
 315              		.loc 1 409 0
 316              		.cfi_startproc
 317 0000 08B5     		push	{r3, lr}
 318              		.cfi_def_cfa_offset 8
 319              		.cfi_offset 3, -8
 320              		.cfi_offset 14, -4
 411:.\Generated_Source\PSoC4/CyLFClk.c **** 
ARM GAS  C:\Users\Tim\AppData\Local\Temp\cc4ChIIk.s 			page 21


 321              		.loc 1 411 0
 322 0002 FFF7FEFF 		bl	CyEnterCriticalSection
 323              	.LVL11:
 413:.\Generated_Source\PSoC4/CyLFClk.c ****                  CY_SYS_WDT_CLK_LOCK_BITS_MASK;
 324              		.loc 1 413 0
 325 0006 044A     		ldr	r2, .L32
 326 0008 1368     		ldr	r3, [r2]
 327 000a C021     		mov	r1, #192
 328 000c 0902     		lsl	r1, r1, #8
 329 000e 0B43     		orr	r3, r1
 330 0010 1360     		str	r3, [r2]
 416:.\Generated_Source\PSoC4/CyLFClk.c ****     }
 331              		.loc 1 416 0
 332 0012 FFF7FEFF 		bl	CyExitCriticalSection
 333              	.LVL12:
 417:.\Generated_Source\PSoC4/CyLFClk.c **** 
 334              		.loc 1 417 0
 335              		@ sp needed
 336 0016 08BD     		pop	{r3, pc}
 337              	.L33:
 338              		.align	2
 339              	.L32:
 340 0018 00010B40 		.word	1074462976
 341              		.cfi_endproc
 342              	.LFE10:
 343              		.size	CySysWdtLock, .-CySysWdtLock
 344              		.section	.text.CySysWdtUnlock,"ax",%progbits
 345              		.align	2
 346              		.global	CySysWdtUnlock
 347              		.code	16
 348              		.thumb_func
 349              		.type	CySysWdtUnlock, %function
 350              	CySysWdtUnlock:
 351              	.LFB12:
 439:.\Generated_Source\PSoC4/CyLFClk.c **** 
 440:.\Generated_Source\PSoC4/CyLFClk.c **** 
 441:.\Generated_Source\PSoC4/CyLFClk.c ****     /*******************************************************************************
 442:.\Generated_Source\PSoC4/CyLFClk.c ****     * Function Name: CySysWdtUnlock
 443:.\Generated_Source\PSoC4/CyLFClk.c ****     ********************************************************************************
 444:.\Generated_Source\PSoC4/CyLFClk.c ****     *
 445:.\Generated_Source\PSoC4/CyLFClk.c ****     * Summary:
 446:.\Generated_Source\PSoC4/CyLFClk.c ****     *  Unlocks the Watchdog Timer configuration register.
 447:.\Generated_Source\PSoC4/CyLFClk.c ****     *
 448:.\Generated_Source\PSoC4/CyLFClk.c ****     * Parameters:
 449:.\Generated_Source\PSoC4/CyLFClk.c ****     *  None.
 450:.\Generated_Source\PSoC4/CyLFClk.c ****     *
 451:.\Generated_Source\PSoC4/CyLFClk.c ****     * Return:
 452:.\Generated_Source\PSoC4/CyLFClk.c ****     *  None.
 453:.\Generated_Source\PSoC4/CyLFClk.c ****     *
 454:.\Generated_Source\PSoC4/CyLFClk.c ****     *******************************************************************************/
 455:.\Generated_Source\PSoC4/CyLFClk.c ****     void CySysWdtUnlock(void)
 456:.\Generated_Source\PSoC4/CyLFClk.c ****     {
 352              		.loc 1 456 0
 353              		.cfi_startproc
 354 0000 10B5     		push	{r4, lr}
 355              		.cfi_def_cfa_offset 8
 356              		.cfi_offset 4, -8
ARM GAS  C:\Users\Tim\AppData\Local\Temp\cc4ChIIk.s 			page 22


 357              		.cfi_offset 14, -4
 457:.\Generated_Source\PSoC4/CyLFClk.c ****         uint8 interruptState;
 458:.\Generated_Source\PSoC4/CyLFClk.c ****         interruptState = CyEnterCriticalSection();
 358              		.loc 1 458 0
 359 0002 FFF7FEFF 		bl	CyEnterCriticalSection
 360              	.LVL13:
 459:.\Generated_Source\PSoC4/CyLFClk.c **** 
 460:.\Generated_Source\PSoC4/CyLFClk.c ****         /* Removing WDT lock requires two writes */
 461:.\Generated_Source\PSoC4/CyLFClk.c ****         CY_SYS_CLK_SELECT_REG = ((CY_SYS_CLK_SELECT_REG & (uint32)(~CY_SYS_WDT_CLK_LOCK_BITS_MASK))
 361              		.loc 1 461 0
 362 0006 0849     		ldr	r1, .L35
 363 0008 0A68     		ldr	r2, [r1]
 364 000a 084B     		ldr	r3, .L35+4
 365 000c 1A40     		and	r2, r3
 366 000e 8024     		mov	r4, #128
 367 0010 E401     		lsl	r4, r4, #7
 368 0012 2243     		orr	r2, r4
 369 0014 0A60     		str	r2, [r1]
 462:.\Generated_Source\PSoC4/CyLFClk.c ****                 CY_SYS_WDT_CLK_LOCK_BIT0);
 463:.\Generated_Source\PSoC4/CyLFClk.c **** 
 464:.\Generated_Source\PSoC4/CyLFClk.c ****         CY_SYS_CLK_SELECT_REG = ((CY_SYS_CLK_SELECT_REG & (uint32)(~CY_SYS_WDT_CLK_LOCK_BITS_MASK))
 370              		.loc 1 464 0
 371 0016 0A68     		ldr	r2, [r1]
 372 0018 1340     		and	r3, r2
 373 001a 8022     		mov	r2, #128
 374 001c 1202     		lsl	r2, r2, #8
 375 001e 1343     		orr	r3, r2
 376 0020 0B60     		str	r3, [r1]
 465:.\Generated_Source\PSoC4/CyLFClk.c ****                 CY_SYS_WDT_CLK_LOCK_BIT1);
 466:.\Generated_Source\PSoC4/CyLFClk.c **** 
 467:.\Generated_Source\PSoC4/CyLFClk.c ****         CyExitCriticalSection(interruptState);
 377              		.loc 1 467 0
 378 0022 FFF7FEFF 		bl	CyExitCriticalSection
 379              	.LVL14:
 468:.\Generated_Source\PSoC4/CyLFClk.c ****     }
 380              		.loc 1 468 0
 381              		@ sp needed
 382 0026 10BD     		pop	{r4, pc}
 383              	.L36:
 384              		.align	2
 385              	.L35:
 386 0028 00010B40 		.word	1074462976
 387 002c FF3FFFFF 		.word	-49153
 388              		.cfi_endproc
 389              	.LFE12:
 390              		.size	CySysWdtUnlock, .-CySysWdtUnlock
 391              		.section	.text.CySysWdtGetEnabledStatus,"ax",%progbits
 392              		.align	2
 393              		.global	CySysWdtGetEnabledStatus
 394              		.code	16
 395              		.thumb_func
 396              		.type	CySysWdtGetEnabledStatus, %function
 397              	CySysWdtGetEnabledStatus:
 398              	.LFB13:
 469:.\Generated_Source\PSoC4/CyLFClk.c **** 
 470:.\Generated_Source\PSoC4/CyLFClk.c **** 
 471:.\Generated_Source\PSoC4/CyLFClk.c ****     /*******************************************************************************
ARM GAS  C:\Users\Tim\AppData\Local\Temp\cc4ChIIk.s 			page 23


 472:.\Generated_Source\PSoC4/CyLFClk.c ****     * Function Name: CySysWdtGetEnabledStatus
 473:.\Generated_Source\PSoC4/CyLFClk.c ****     ********************************************************************************
 474:.\Generated_Source\PSoC4/CyLFClk.c ****     *
 475:.\Generated_Source\PSoC4/CyLFClk.c ****     * Summary:
 476:.\Generated_Source\PSoC4/CyLFClk.c ****     *  Reads the enabled status of one of the three WDT counters.
 477:.\Generated_Source\PSoC4/CyLFClk.c ****     *
 478:.\Generated_Source\PSoC4/CyLFClk.c ****     * Parameters:
 479:.\Generated_Source\PSoC4/CyLFClk.c ****     *  counterNum: Valid range [0-2].  the number of the WDT counter.
 480:.\Generated_Source\PSoC4/CyLFClk.c ****     *
 481:.\Generated_Source\PSoC4/CyLFClk.c ****     * Return:
 482:.\Generated_Source\PSoC4/CyLFClk.c ****     *  The status of the WDT counter:
 483:.\Generated_Source\PSoC4/CyLFClk.c ****     *   0 - The counter is disabled.
 484:.\Generated_Source\PSoC4/CyLFClk.c ****     *   1 - The counter is enabled.
 485:.\Generated_Source\PSoC4/CyLFClk.c ****     *
 486:.\Generated_Source\PSoC4/CyLFClk.c ****     * Side Effects:
 487:.\Generated_Source\PSoC4/CyLFClk.c ****     *  This function returns an actual WDT counter status from the status register. It may
 488:.\Generated_Source\PSoC4/CyLFClk.c ****     *  take up to 3 LFCLK cycles for the WDT status register to contain actual data
 489:.\Generated_Source\PSoC4/CyLFClk.c ****     *  after the WDT counter is enabled.
 490:.\Generated_Source\PSoC4/CyLFClk.c ****     *
 491:.\Generated_Source\PSoC4/CyLFClk.c ****     *
 492:.\Generated_Source\PSoC4/CyLFClk.c ****     *******************************************************************************/
 493:.\Generated_Source\PSoC4/CyLFClk.c ****     uint32 CySysWdtGetEnabledStatus(uint32 counterNum)
 494:.\Generated_Source\PSoC4/CyLFClk.c ****     {
 399              		.loc 1 494 0
 400              		.cfi_startproc
 401              	.LVL15:
 402 0000 10B5     		push	{r4, lr}
 403              		.cfi_def_cfa_offset 8
 404              		.cfi_offset 4, -8
 405              		.cfi_offset 14, -4
 406 0002 041E     		sub	r4, r0, #0
 495:.\Generated_Source\PSoC4/CyLFClk.c ****         CYASSERT(counterNum < CY_SYS_WDT_COUNTERS_MAX);
 407              		.loc 1 495 0
 408 0004 022C     		cmp	r4, #2
 409 0006 02D9     		bls	.L38
 410              		.loc 1 495 0 is_stmt 0 discriminator 1
 411 0008 0020     		mov	r0, #0
 412              	.LVL16:
 413 000a FFF7FEFF 		bl	CyHalt
 414              	.LVL17:
 415              	.L38:
 496:.\Generated_Source\PSoC4/CyLFClk.c ****         return ((CY_SYS_WDT_CONTROL_REG >> ((CY_SYS_WDT_CNT_SHIFT * counterNum) + CY_SYS_WDT_CNT_ST
 416              		.loc 1 496 0 is_stmt 1
 417 000e 044B     		ldr	r3, .L39
 418 0010 1868     		ldr	r0, [r3]
 419 0012 E400     		lsl	r4, r4, #3
 420              	.LVL18:
 421 0014 0134     		add	r4, r4, #1
 422 0016 E040     		lsr	r0, r0, r4
 423 0018 041C     		mov	r4, r0
 424 001a 0120     		mov	r0, #1
 425 001c 2040     		and	r0, r4
 497:.\Generated_Source\PSoC4/CyLFClk.c ****     }
 426              		.loc 1 497 0
 427              		@ sp needed
 428 001e 10BD     		pop	{r4, pc}
 429              	.L40:
ARM GAS  C:\Users\Tim\AppData\Local\Temp\cc4ChIIk.s 			page 24


 430              		.align	2
 431              	.L39:
 432 0020 10020B40 		.word	1074463248
 433              		.cfi_endproc
 434              	.LFE13:
 435              		.size	CySysWdtGetEnabledStatus, .-CySysWdtGetEnabledStatus
 436              		.section	.text.CySysWdtSetMode,"ax",%progbits
 437              		.align	2
 438              		.global	CySysWdtSetMode
 439              		.code	16
 440              		.thumb_func
 441              		.type	CySysWdtSetMode, %function
 442              	CySysWdtSetMode:
 443              	.LFB14:
 498:.\Generated_Source\PSoC4/CyLFClk.c **** 
 499:.\Generated_Source\PSoC4/CyLFClk.c **** 
 500:.\Generated_Source\PSoC4/CyLFClk.c ****     /*******************************************************************************
 501:.\Generated_Source\PSoC4/CyLFClk.c ****     * Function Name: CySysWdtSetMode
 502:.\Generated_Source\PSoC4/CyLFClk.c ****     ********************************************************************************
 503:.\Generated_Source\PSoC4/CyLFClk.c ****     *
 504:.\Generated_Source\PSoC4/CyLFClk.c ****     * Summary:
 505:.\Generated_Source\PSoC4/CyLFClk.c ****     *   Writes the mode of one of the three WDT counters.
 506:.\Generated_Source\PSoC4/CyLFClk.c ****     *
 507:.\Generated_Source\PSoC4/CyLFClk.c ****     * Parameters:
 508:.\Generated_Source\PSoC4/CyLFClk.c ****     *   counterNum: Valid range [0-2].  The number of the WDT counter.
 509:.\Generated_Source\PSoC4/CyLFClk.c ****     *   mode:       Mode of operation for the counter.
 510:.\Generated_Source\PSoC4/CyLFClk.c ****     *       Define                     Mode
 511:.\Generated_Source\PSoC4/CyLFClk.c ****     *        CY_SYS_WDT_MODE_NONE       Free running
 512:.\Generated_Source\PSoC4/CyLFClk.c ****     *        CY_SYS_WDT_MODE_INT        The interrupt generated on match for counter 0
 513:.\Generated_Source\PSoC4/CyLFClk.c ****     *                                   and 1, and on bit toggle for counter 2.
 514:.\Generated_Source\PSoC4/CyLFClk.c ****     *        CY_SYS_WDT_MODE_RESET      Reset on match (valid for counter 0 and 1
 515:.\Generated_Source\PSoC4/CyLFClk.c ****     *                                   only)
 516:.\Generated_Source\PSoC4/CyLFClk.c ****     *        CY_SYS_WDT_MODE_INT_RESET  Generate an interrupt.  Generate a reset on
 517:.\Generated_Source\PSoC4/CyLFClk.c ****     *                                   the 3rd non-handled interrupt.
 518:.\Generated_Source\PSoC4/CyLFClk.c ****     *                                   (valid for counter 0 and 1 only)
 519:.\Generated_Source\PSoC4/CyLFClk.c ****     * Return:
 520:.\Generated_Source\PSoC4/CyLFClk.c ****     *   None.
 521:.\Generated_Source\PSoC4/CyLFClk.c ****     *
 522:.\Generated_Source\PSoC4/CyLFClk.c ****     * Side Effects:
 523:.\Generated_Source\PSoC4/CyLFClk.c ****     *   WDT counter counterNum should be disabled to set a mode. Otherwise, this
 524:.\Generated_Source\PSoC4/CyLFClk.c ****     *   function call has no effect. If the specified counter is enabled,
 525:.\Generated_Source\PSoC4/CyLFClk.c ****     *   call the CySysWdtDisable() function with the corresponding parameter to
 526:.\Generated_Source\PSoC4/CyLFClk.c ****     *   disable the specified counter and wait for it to stop.
 527:.\Generated_Source\PSoC4/CyLFClk.c ****     *
 528:.\Generated_Source\PSoC4/CyLFClk.c ****     *******************************************************************************/
 529:.\Generated_Source\PSoC4/CyLFClk.c ****     void CySysWdtSetMode(uint32 counterNum, uint32 mode)
 530:.\Generated_Source\PSoC4/CyLFClk.c ****     {
 444              		.loc 1 530 0
 445              		.cfi_startproc
 446              	.LVL19:
 447 0000 38B5     		push	{r3, r4, r5, lr}
 448              		.cfi_def_cfa_offset 16
 449              		.cfi_offset 3, -16
 450              		.cfi_offset 4, -12
 451              		.cfi_offset 5, -8
 452              		.cfi_offset 14, -4
 453 0002 041C     		mov	r4, r0
ARM GAS  C:\Users\Tim\AppData\Local\Temp\cc4ChIIk.s 			page 25


 454 0004 0D1C     		mov	r5, r1
 531:.\Generated_Source\PSoC4/CyLFClk.c ****         uint32 configRegValue;
 532:.\Generated_Source\PSoC4/CyLFClk.c **** 
 533:.\Generated_Source\PSoC4/CyLFClk.c ****         CYASSERT(counterNum < CY_SYS_WDT_COUNTERS_MAX);
 455              		.loc 1 533 0
 456 0006 0228     		cmp	r0, #2
 457 0008 02D9     		bls	.L42
 458              		.loc 1 533 0 is_stmt 0 discriminator 1
 459 000a 0020     		mov	r0, #0
 460              	.LVL20:
 461 000c FFF7FEFF 		bl	CyHalt
 462              	.LVL21:
 463              	.L42:
 534:.\Generated_Source\PSoC4/CyLFClk.c **** 
 535:.\Generated_Source\PSoC4/CyLFClk.c ****         if(0u == CySysWdtGetEnabledStatus(counterNum))
 464              		.loc 1 535 0 is_stmt 1
 465 0010 201C     		mov	r0, r4
 466 0012 FFF7FEFF 		bl	CySysWdtGetEnabledStatus
 467              	.LVL22:
 468 0016 0028     		cmp	r0, #0
 469 0018 0BD1     		bne	.L41
 536:.\Generated_Source\PSoC4/CyLFClk.c ****         {
 537:.\Generated_Source\PSoC4/CyLFClk.c ****             configRegValue = CY_SYS_WDT_CONFIG_REG &
 470              		.loc 1 537 0
 471 001a 064A     		ldr	r2, .L44
 472 001c 1368     		ldr	r3, [r2]
 538:.\Generated_Source\PSoC4/CyLFClk.c ****                                 (uint32)~((uint32)(CY_SYS_WDT_MODE_MASK << (counterNum * CY_SYS_WDT
 473              		.loc 1 538 0
 474 001e E400     		lsl	r4, r4, #3
 475              	.LVL23:
 476 0020 0321     		mov	r1, #3
 477 0022 081C     		mov	r0, r1
 478 0024 A040     		lsl	r0, r0, r4
 537:.\Generated_Source\PSoC4/CyLFClk.c ****                                 (uint32)~((uint32)(CY_SYS_WDT_MODE_MASK << (counterNum * CY_SYS_WDT
 479              		.loc 1 537 0
 480 0026 8343     		bic	r3, r0
 481              	.LVL24:
 539:.\Generated_Source\PSoC4/CyLFClk.c ****             configRegValue |= (uint32)((mode & CY_SYS_WDT_MODE_MASK) << (counterNum * CY_SYS_WDT_CN
 482              		.loc 1 539 0
 483 0028 0D40     		and	r5, r1
 484              	.LVL25:
 485 002a A540     		lsl	r5, r5, r4
 486 002c 2C1C     		mov	r4, r5
 487 002e 1C43     		orr	r4, r3
 488              	.LVL26:
 540:.\Generated_Source\PSoC4/CyLFClk.c ****             CY_SYS_WDT_CONFIG_REG = configRegValue;
 489              		.loc 1 540 0
 490 0030 1460     		str	r4, [r2]
 491              	.LVL27:
 492              	.L41:
 541:.\Generated_Source\PSoC4/CyLFClk.c ****         }
 542:.\Generated_Source\PSoC4/CyLFClk.c ****     }
 493              		.loc 1 542 0
 494              		@ sp needed
 495 0032 38BD     		pop	{r3, r4, r5, pc}
 496              	.L45:
 497              		.align	2
ARM GAS  C:\Users\Tim\AppData\Local\Temp\cc4ChIIk.s 			page 26


 498              	.L44:
 499 0034 0C020B40 		.word	1074463244
 500              		.cfi_endproc
 501              	.LFE14:
 502              		.size	CySysWdtSetMode, .-CySysWdtSetMode
 503              		.section	.text.CySysClkLfclkPosedgeRestore,"ax",%progbits
 504              		.align	2
 505              		.code	16
 506              		.thumb_func
 507              		.type	CySysClkLfclkPosedgeRestore, %function
 508              	CySysClkLfclkPosedgeRestore:
 509              	.LFB39:
 543:.\Generated_Source\PSoC4/CyLFClk.c **** 
 544:.\Generated_Source\PSoC4/CyLFClk.c **** 
 545:.\Generated_Source\PSoC4/CyLFClk.c ****     /*******************************************************************************
 546:.\Generated_Source\PSoC4/CyLFClk.c ****     * Function Name: CySysWdtGetMode
 547:.\Generated_Source\PSoC4/CyLFClk.c ****     ********************************************************************************
 548:.\Generated_Source\PSoC4/CyLFClk.c ****     *
 549:.\Generated_Source\PSoC4/CyLFClk.c ****     * Summary:
 550:.\Generated_Source\PSoC4/CyLFClk.c ****     *  Reads the mode of one of the three WDT counters.
 551:.\Generated_Source\PSoC4/CyLFClk.c ****     *
 552:.\Generated_Source\PSoC4/CyLFClk.c ****     * Parameters:
 553:.\Generated_Source\PSoC4/CyLFClk.c ****     *  counterNum: Valid range [0-2].  The number of the WDT counter.
 554:.\Generated_Source\PSoC4/CyLFClk.c ****     *
 555:.\Generated_Source\PSoC4/CyLFClk.c ****     * Return:
 556:.\Generated_Source\PSoC4/CyLFClk.c ****     *  The mode of the counter.  The same enumerated values as the mode parameter used in
 557:.\Generated_Source\PSoC4/CyLFClk.c ****     *  CySysWdtSetMode().
 558:.\Generated_Source\PSoC4/CyLFClk.c ****     *
 559:.\Generated_Source\PSoC4/CyLFClk.c ****     *******************************************************************************/
 560:.\Generated_Source\PSoC4/CyLFClk.c ****     uint32 CySysWdtGetMode(uint32 counterNum)
 561:.\Generated_Source\PSoC4/CyLFClk.c ****     {
 562:.\Generated_Source\PSoC4/CyLFClk.c ****         return ((CY_SYS_WDT_CONFIG_REG >> (counterNum * CY_SYS_WDT_CNT_SHIFT)) & CY_SYS_WDT_MODE_MA
 563:.\Generated_Source\PSoC4/CyLFClk.c ****     }
 564:.\Generated_Source\PSoC4/CyLFClk.c **** 
 565:.\Generated_Source\PSoC4/CyLFClk.c **** 
 566:.\Generated_Source\PSoC4/CyLFClk.c ****     /*******************************************************************************
 567:.\Generated_Source\PSoC4/CyLFClk.c ****     * Function Name: CySysWdtSetClearOnMatch
 568:.\Generated_Source\PSoC4/CyLFClk.c ****     ********************************************************************************
 569:.\Generated_Source\PSoC4/CyLFClk.c ****     *
 570:.\Generated_Source\PSoC4/CyLFClk.c ****     * Summary:
 571:.\Generated_Source\PSoC4/CyLFClk.c ****     *  Configures the WDT counter "clear on match" setting.  If configured to "clear
 572:.\Generated_Source\PSoC4/CyLFClk.c ****     *  on match", the counter counts from 0 to MatchValue giving it a
 573:.\Generated_Source\PSoC4/CyLFClk.c ****     *  period of (MatchValue + 1).
 574:.\Generated_Source\PSoC4/CyLFClk.c ****     *
 575:.\Generated_Source\PSoC4/CyLFClk.c ****     * Parameters:
 576:.\Generated_Source\PSoC4/CyLFClk.c ****     *  counterNum:
 577:.\Generated_Source\PSoC4/CyLFClk.c ****     *   Valid range [0-1].  The number of the WDT counter.  The match values are not
 578:.\Generated_Source\PSoC4/CyLFClk.c ****     *   supported by counter 2.
 579:.\Generated_Source\PSoC4/CyLFClk.c ****     *
 580:.\Generated_Source\PSoC4/CyLFClk.c ****     * enable:
 581:.\Generated_Source\PSoC4/CyLFClk.c ****     *   0 to disable, 1 to enable
 582:.\Generated_Source\PSoC4/CyLFClk.c ****     *
 583:.\Generated_Source\PSoC4/CyLFClk.c ****     * Return:
 584:.\Generated_Source\PSoC4/CyLFClk.c ****     *   None.
 585:.\Generated_Source\PSoC4/CyLFClk.c ****     *
 586:.\Generated_Source\PSoC4/CyLFClk.c ****     * Side Effects:
 587:.\Generated_Source\PSoC4/CyLFClk.c ****     *   WDT counter counterNum should be disabled. Otherwise this function call
ARM GAS  C:\Users\Tim\AppData\Local\Temp\cc4ChIIk.s 			page 27


 588:.\Generated_Source\PSoC4/CyLFClk.c ****     *   has no effect. If the specified counter is enabled, call the CySysWdtDisable()
 589:.\Generated_Source\PSoC4/CyLFClk.c ****     *   function with the corresponding parameter to disable the specified counter and
 590:.\Generated_Source\PSoC4/CyLFClk.c ****     *   wait for it to stop. This may take up to three LFCLK cycles.
 591:.\Generated_Source\PSoC4/CyLFClk.c ****     *
 592:.\Generated_Source\PSoC4/CyLFClk.c ****     *******************************************************************************/
 593:.\Generated_Source\PSoC4/CyLFClk.c ****     void CySysWdtSetClearOnMatch(uint32 counterNum, uint32 enable)
 594:.\Generated_Source\PSoC4/CyLFClk.c ****     {
 595:.\Generated_Source\PSoC4/CyLFClk.c ****         uint32 configRegValue;
 596:.\Generated_Source\PSoC4/CyLFClk.c **** 
 597:.\Generated_Source\PSoC4/CyLFClk.c ****         CYASSERT((counterNum == CY_SYS_WDT_COUNTER0) ||
 598:.\Generated_Source\PSoC4/CyLFClk.c ****                  (counterNum == CY_SYS_WDT_COUNTER1));
 599:.\Generated_Source\PSoC4/CyLFClk.c **** 
 600:.\Generated_Source\PSoC4/CyLFClk.c ****         if(0u == CySysWdtGetEnabledStatus(counterNum))
 601:.\Generated_Source\PSoC4/CyLFClk.c ****         {
 602:.\Generated_Source\PSoC4/CyLFClk.c ****             configRegValue = CY_SYS_WDT_CONFIG_REG &
 603:.\Generated_Source\PSoC4/CyLFClk.c ****                 (uint32)~((uint32)((uint32)1u << ((counterNum * CY_SYS_WDT_CNT_SHIFT) + CY_SYS_WDT_
 604:.\Generated_Source\PSoC4/CyLFClk.c **** 
 605:.\Generated_Source\PSoC4/CyLFClk.c ****             configRegValue
 606:.\Generated_Source\PSoC4/CyLFClk.c ****                 |= (uint32)(enable << ((counterNum * CY_SYS_WDT_CNT_SHIFT) + CY_SYS_WDT_CNT_MATCH_C
 607:.\Generated_Source\PSoC4/CyLFClk.c **** 
 608:.\Generated_Source\PSoC4/CyLFClk.c ****             CY_SYS_WDT_CONFIG_REG = configRegValue;
 609:.\Generated_Source\PSoC4/CyLFClk.c ****         }
 610:.\Generated_Source\PSoC4/CyLFClk.c ****     }
 611:.\Generated_Source\PSoC4/CyLFClk.c **** 
 612:.\Generated_Source\PSoC4/CyLFClk.c **** 
 613:.\Generated_Source\PSoC4/CyLFClk.c ****     /*******************************************************************************
 614:.\Generated_Source\PSoC4/CyLFClk.c ****     * Function Name: CySysWdtGetClearOnMatch
 615:.\Generated_Source\PSoC4/CyLFClk.c ****     ********************************************************************************
 616:.\Generated_Source\PSoC4/CyLFClk.c ****     *
 617:.\Generated_Source\PSoC4/CyLFClk.c ****     * Summary:
 618:.\Generated_Source\PSoC4/CyLFClk.c ****     *  Reads the "clear on match" setting for the specified counter.
 619:.\Generated_Source\PSoC4/CyLFClk.c ****     *
 620:.\Generated_Source\PSoC4/CyLFClk.c ****     * Parameters:
 621:.\Generated_Source\PSoC4/CyLFClk.c ****     *   counterNum: Valid range [0-1].  The number of the WDT counter.  The match values are
 622:.\Generated_Source\PSoC4/CyLFClk.c ****     *               not supported by counter 2.
 623:.\Generated_Source\PSoC4/CyLFClk.c ****     *
 624:.\Generated_Source\PSoC4/CyLFClk.c ****     * Return:
 625:.\Generated_Source\PSoC4/CyLFClk.c ****     *   The "clear on match" status: 1 if enabled, 0 if disabled
 626:.\Generated_Source\PSoC4/CyLFClk.c ****     *
 627:.\Generated_Source\PSoC4/CyLFClk.c ****     *******************************************************************************/
 628:.\Generated_Source\PSoC4/CyLFClk.c ****     uint32 CySysWdtGetClearOnMatch(uint32 counterNum)
 629:.\Generated_Source\PSoC4/CyLFClk.c ****     {
 630:.\Generated_Source\PSoC4/CyLFClk.c ****         CYASSERT((counterNum == CY_SYS_WDT_COUNTER0) ||
 631:.\Generated_Source\PSoC4/CyLFClk.c ****                  (counterNum == CY_SYS_WDT_COUNTER1));
 632:.\Generated_Source\PSoC4/CyLFClk.c **** 
 633:.\Generated_Source\PSoC4/CyLFClk.c ****         return (uint32)((CY_SYS_WDT_CONFIG_REG >>
 634:.\Generated_Source\PSoC4/CyLFClk.c ****                         ((counterNum * CY_SYS_WDT_CNT_SHIFT) + CY_SYS_WDT_CNT_MATCH_CLR_SHIFT)) & 0
 635:.\Generated_Source\PSoC4/CyLFClk.c ****     }
 636:.\Generated_Source\PSoC4/CyLFClk.c **** 
 637:.\Generated_Source\PSoC4/CyLFClk.c **** 
 638:.\Generated_Source\PSoC4/CyLFClk.c ****     /*******************************************************************************
 639:.\Generated_Source\PSoC4/CyLFClk.c ****     * Function Name: CySysWdtEnable
 640:.\Generated_Source\PSoC4/CyLFClk.c ****     ********************************************************************************
 641:.\Generated_Source\PSoC4/CyLFClk.c ****     *
 642:.\Generated_Source\PSoC4/CyLFClk.c ****     * Summary:
 643:.\Generated_Source\PSoC4/CyLFClk.c ****     *  Enables the specified WDT counters.  All the counters specified in the mask
 644:.\Generated_Source\PSoC4/CyLFClk.c ****     *  are enabled.
ARM GAS  C:\Users\Tim\AppData\Local\Temp\cc4ChIIk.s 			page 28


 645:.\Generated_Source\PSoC4/CyLFClk.c ****     *
 646:.\Generated_Source\PSoC4/CyLFClk.c ****     * Parameters:
 647:.\Generated_Source\PSoC4/CyLFClk.c ****     *  counterMask: The mask of all counters to enable.
 648:.\Generated_Source\PSoC4/CyLFClk.c ****     *       Define                       Counter
 649:.\Generated_Source\PSoC4/CyLFClk.c ****     *      CY_SYS_WDT_COUNTER0_MASK      0
 650:.\Generated_Source\PSoC4/CyLFClk.c ****     *      CY_SYS_WDT_COUNTER1_MASK      1
 651:.\Generated_Source\PSoC4/CyLFClk.c ****     *      CY_SYS_WDT_COUNTER2_MASK      2
 652:.\Generated_Source\PSoC4/CyLFClk.c ****     *
 653:.\Generated_Source\PSoC4/CyLFClk.c ****     * Return:
 654:.\Generated_Source\PSoC4/CyLFClk.c ****     *  None
 655:.\Generated_Source\PSoC4/CyLFClk.c ****     *
 656:.\Generated_Source\PSoC4/CyLFClk.c ****     * Side Effects:
 657:.\Generated_Source\PSoC4/CyLFClk.c ****     *  Enabling or disabling WDT requires 3 LFCLK cycles to come into effect.
 658:.\Generated_Source\PSoC4/CyLFClk.c ****     *  Therefore, the WDT enable state must not be changed more than once in
 659:.\Generated_Source\PSoC4/CyLFClk.c ****     *  that period.
 660:.\Generated_Source\PSoC4/CyLFClk.c ****     *
 661:.\Generated_Source\PSoC4/CyLFClk.c ****     *  After WDT is enabled, it is illegal to write WDT configuration (WDT_CONFIG)
 662:.\Generated_Source\PSoC4/CyLFClk.c ****     *  and control (WDT_CONTROL) registers. This means that all WDT functions that
 663:.\Generated_Source\PSoC4/CyLFClk.c ****     *  contain 'write' in the name (with the exception of CySysWdtSetMatch()
 664:.\Generated_Source\PSoC4/CyLFClk.c ****     *  function) are illegal to call once WDT enabled.
 665:.\Generated_Source\PSoC4/CyLFClk.c ****     *
 666:.\Generated_Source\PSoC4/CyLFClk.c ****     *  PSoC 4100 / PSoC 4200:
 667:.\Generated_Source\PSoC4/CyLFClk.c ****     *  This function enables ILO.
 668:.\Generated_Source\PSoC4/CyLFClk.c ****     *
 669:.\Generated_Source\PSoC4/CyLFClk.c ****     *  PSoC 4100-BL / PSoC 4200-BL and PSoC 4100M / PSoC 4200M:
 670:.\Generated_Source\PSoC4/CyLFClk.c ****     *  LFLCK should be configured before calling this function. The desired
 671:.\Generated_Source\PSoC4/CyLFClk.c ****     *  source should be enabled and configured to be the source for LFCLK.
 672:.\Generated_Source\PSoC4/CyLFClk.c ****     *
 673:.\Generated_Source\PSoC4/CyLFClk.c ****     *******************************************************************************/
 674:.\Generated_Source\PSoC4/CyLFClk.c ****     void CySysWdtEnable(uint32 counterMask)
 675:.\Generated_Source\PSoC4/CyLFClk.c ****     {
 676:.\Generated_Source\PSoC4/CyLFClk.c ****         #if (!CY_IP_WCO)
 677:.\Generated_Source\PSoC4/CyLFClk.c ****             CySysClkIloStart();
 678:.\Generated_Source\PSoC4/CyLFClk.c ****         #endif /* (!CY_IP_WCO) */
 679:.\Generated_Source\PSoC4/CyLFClk.c **** 
 680:.\Generated_Source\PSoC4/CyLFClk.c ****         CY_SYS_WDT_CONTROL_REG |= counterMask;
 681:.\Generated_Source\PSoC4/CyLFClk.c **** 
 682:.\Generated_Source\PSoC4/CyLFClk.c ****         if(0u != (counterMask & CY_SYS_WDT_COUNTER0_MASK))
 683:.\Generated_Source\PSoC4/CyLFClk.c ****         {
 684:.\Generated_Source\PSoC4/CyLFClk.c ****             while (0u == CySysWdtGetEnabledStatus(CY_SYS_WDT_COUNTER0))
 685:.\Generated_Source\PSoC4/CyLFClk.c ****             {
 686:.\Generated_Source\PSoC4/CyLFClk.c ****                 /* Wait for changes to come into effect */
 687:.\Generated_Source\PSoC4/CyLFClk.c ****             }
 688:.\Generated_Source\PSoC4/CyLFClk.c ****         }
 689:.\Generated_Source\PSoC4/CyLFClk.c **** 
 690:.\Generated_Source\PSoC4/CyLFClk.c ****         if(0u != (counterMask & CY_SYS_WDT_COUNTER1_MASK))
 691:.\Generated_Source\PSoC4/CyLFClk.c ****         {
 692:.\Generated_Source\PSoC4/CyLFClk.c ****             while (0u == CySysWdtGetEnabledStatus(CY_SYS_WDT_COUNTER1))
 693:.\Generated_Source\PSoC4/CyLFClk.c ****             {
 694:.\Generated_Source\PSoC4/CyLFClk.c ****                 /* Wait for changes to come into effect */
 695:.\Generated_Source\PSoC4/CyLFClk.c ****             }
 696:.\Generated_Source\PSoC4/CyLFClk.c ****         }
 697:.\Generated_Source\PSoC4/CyLFClk.c **** 
 698:.\Generated_Source\PSoC4/CyLFClk.c ****         if(0u != (counterMask & CY_SYS_WDT_COUNTER2_MASK))
 699:.\Generated_Source\PSoC4/CyLFClk.c ****         {
 700:.\Generated_Source\PSoC4/CyLFClk.c ****             while (0u == CySysWdtGetEnabledStatus(CY_SYS_WDT_COUNTER2))
 701:.\Generated_Source\PSoC4/CyLFClk.c ****             {
ARM GAS  C:\Users\Tim\AppData\Local\Temp\cc4ChIIk.s 			page 29


 702:.\Generated_Source\PSoC4/CyLFClk.c ****                 /* Wait for changes to come into effect */
 703:.\Generated_Source\PSoC4/CyLFClk.c ****             }
 704:.\Generated_Source\PSoC4/CyLFClk.c ****         }
 705:.\Generated_Source\PSoC4/CyLFClk.c ****     }
 706:.\Generated_Source\PSoC4/CyLFClk.c **** 
 707:.\Generated_Source\PSoC4/CyLFClk.c **** 
 708:.\Generated_Source\PSoC4/CyLFClk.c ****     /*******************************************************************************
 709:.\Generated_Source\PSoC4/CyLFClk.c ****     * Function Name: CySysWdtDisable
 710:.\Generated_Source\PSoC4/CyLFClk.c ****     ********************************************************************************
 711:.\Generated_Source\PSoC4/CyLFClk.c ****     *
 712:.\Generated_Source\PSoC4/CyLFClk.c ****     * Summary:
 713:.\Generated_Source\PSoC4/CyLFClk.c ****     *  Disables the specified WDT counters. All the counters specified in the mask
 714:.\Generated_Source\PSoC4/CyLFClk.c ****     *  are disabled. The function waits for the changes to come into effect.
 715:.\Generated_Source\PSoC4/CyLFClk.c ****     *
 716:.\Generated_Source\PSoC4/CyLFClk.c ****     * Parameters:
 717:.\Generated_Source\PSoC4/CyLFClk.c ****     *  uint32 counterMask: The mask of all counters to disable
 718:.\Generated_Source\PSoC4/CyLFClk.c ****     *    Define                       Counter
 719:.\Generated_Source\PSoC4/CyLFClk.c ****     *   CY_SYS_WDT_COUNTER0_MASK      0
 720:.\Generated_Source\PSoC4/CyLFClk.c ****     *   CY_SYS_WDT_COUNTER1_MASK      1
 721:.\Generated_Source\PSoC4/CyLFClk.c ****     *   CY_SYS_WDT_COUNTER2_MASK      2
 722:.\Generated_Source\PSoC4/CyLFClk.c ****     *
 723:.\Generated_Source\PSoC4/CyLFClk.c ****     * Return:
 724:.\Generated_Source\PSoC4/CyLFClk.c ****     *   None.
 725:.\Generated_Source\PSoC4/CyLFClk.c ****     *
 726:.\Generated_Source\PSoC4/CyLFClk.c ****     *******************************************************************************/
 727:.\Generated_Source\PSoC4/CyLFClk.c ****     void CySysWdtDisable(uint32 counterMask)
 728:.\Generated_Source\PSoC4/CyLFClk.c ****     {
 729:.\Generated_Source\PSoC4/CyLFClk.c ****         if (0uL == CySysWdtLocked())
 730:.\Generated_Source\PSoC4/CyLFClk.c ****         {
 731:.\Generated_Source\PSoC4/CyLFClk.c ****             CY_SYS_WDT_CONTROL_REG &= ~counterMask;
 732:.\Generated_Source\PSoC4/CyLFClk.c **** 
 733:.\Generated_Source\PSoC4/CyLFClk.c ****             if(0u != (counterMask & CY_SYS_WDT_COUNTER0_MASK))
 734:.\Generated_Source\PSoC4/CyLFClk.c ****             {
 735:.\Generated_Source\PSoC4/CyLFClk.c ****                 while (0u != CySysWdtGetEnabledStatus(CY_SYS_WDT_COUNTER0))
 736:.\Generated_Source\PSoC4/CyLFClk.c ****                 {
 737:.\Generated_Source\PSoC4/CyLFClk.c ****                     /* Wait for changes to come into effect */
 738:.\Generated_Source\PSoC4/CyLFClk.c ****                 }
 739:.\Generated_Source\PSoC4/CyLFClk.c ****             }
 740:.\Generated_Source\PSoC4/CyLFClk.c **** 
 741:.\Generated_Source\PSoC4/CyLFClk.c ****             if(0u != (counterMask & CY_SYS_WDT_COUNTER1_MASK))
 742:.\Generated_Source\PSoC4/CyLFClk.c ****             {
 743:.\Generated_Source\PSoC4/CyLFClk.c ****                 while (0u != CySysWdtGetEnabledStatus(CY_SYS_WDT_COUNTER1))
 744:.\Generated_Source\PSoC4/CyLFClk.c ****                 {
 745:.\Generated_Source\PSoC4/CyLFClk.c ****                     /* Wait for changes to come into effect */
 746:.\Generated_Source\PSoC4/CyLFClk.c ****                 }
 747:.\Generated_Source\PSoC4/CyLFClk.c ****             }
 748:.\Generated_Source\PSoC4/CyLFClk.c **** 
 749:.\Generated_Source\PSoC4/CyLFClk.c ****             if(0u != (counterMask & CY_SYS_WDT_COUNTER2_MASK))
 750:.\Generated_Source\PSoC4/CyLFClk.c ****             {
 751:.\Generated_Source\PSoC4/CyLFClk.c ****                 while (0u != CySysWdtGetEnabledStatus(CY_SYS_WDT_COUNTER2))
 752:.\Generated_Source\PSoC4/CyLFClk.c ****                 {
 753:.\Generated_Source\PSoC4/CyLFClk.c ****                     /* Wait for changes to come into effect */
 754:.\Generated_Source\PSoC4/CyLFClk.c ****                 }
 755:.\Generated_Source\PSoC4/CyLFClk.c ****             }
 756:.\Generated_Source\PSoC4/CyLFClk.c ****         }
 757:.\Generated_Source\PSoC4/CyLFClk.c ****     }
 758:.\Generated_Source\PSoC4/CyLFClk.c **** 
ARM GAS  C:\Users\Tim\AppData\Local\Temp\cc4ChIIk.s 			page 30


 759:.\Generated_Source\PSoC4/CyLFClk.c **** 
 760:.\Generated_Source\PSoC4/CyLFClk.c ****     /*******************************************************************************
 761:.\Generated_Source\PSoC4/CyLFClk.c ****     * Function Name: CySysWdtSetCascade
 762:.\Generated_Source\PSoC4/CyLFClk.c ****     ********************************************************************************
 763:.\Generated_Source\PSoC4/CyLFClk.c ****     *
 764:.\Generated_Source\PSoC4/CyLFClk.c ****     * Summary:
 765:.\Generated_Source\PSoC4/CyLFClk.c ****     *   Writes the two WDT cascade values based on the combination of mask values
 766:.\Generated_Source\PSoC4/CyLFClk.c ****     *   specified.
 767:.\Generated_Source\PSoC4/CyLFClk.c ****     *
 768:.\Generated_Source\PSoC4/CyLFClk.c ****     * Parameters:
 769:.\Generated_Source\PSoC4/CyLFClk.c ****     *   cascadeMask: The mask value used to set or clear the cascade values.
 770:.\Generated_Source\PSoC4/CyLFClk.c ****     *   Define                     Cascade
 771:.\Generated_Source\PSoC4/CyLFClk.c ****     *   CY_SYS_WDT_CASCADE_NONE    Neither
 772:.\Generated_Source\PSoC4/CyLFClk.c ****     *   CY_SYS_WDT_CASCADE_01      Cascade 01
 773:.\Generated_Source\PSoC4/CyLFClk.c ****     *   CY_SYS_WDT_CASCADE_12      Cascade 12
 774:.\Generated_Source\PSoC4/CyLFClk.c ****     *
 775:.\Generated_Source\PSoC4/CyLFClk.c ****     *   To set both cascade modes, two defines should be ORed:
 776:.\Generated_Source\PSoC4/CyLFClk.c ****     *   (CY_SYS_WDT_CASCADE_01 | CY_SYS_WDT_CASCADE_12)
 777:.\Generated_Source\PSoC4/CyLFClk.c ****     *
 778:.\Generated_Source\PSoC4/CyLFClk.c ****     * Return:
 779:.\Generated_Source\PSoC4/CyLFClk.c ****     *   None.
 780:.\Generated_Source\PSoC4/CyLFClk.c ****     *
 781:.\Generated_Source\PSoC4/CyLFClk.c ****     * Side effects:
 782:.\Generated_Source\PSoC4/CyLFClk.c ****     *   If only one cascade mask is specified, the second cascade is disabled.
 783:.\Generated_Source\PSoC4/CyLFClk.c ****     *   To set both cascade modes, two defines should be ORed:
 784:.\Generated_Source\PSoC4/CyLFClk.c ****     *    (CY_SYS_WDT_CASCADE_01 | CY_SYS_WDT_CASCADE_12).
 785:.\Generated_Source\PSoC4/CyLFClk.c ****     *
 786:.\Generated_Source\PSoC4/CyLFClk.c ****     *   WDT counters that are part of the specified cascade should be disabled.
 787:.\Generated_Source\PSoC4/CyLFClk.c ****     *   Otherwise this function call has no effect. If the specified
 788:.\Generated_Source\PSoC4/CyLFClk.c ****     *   counter is enabled, call CySysWdtDisable() function with the corresponding
 789:.\Generated_Source\PSoC4/CyLFClk.c ****     *   parameter to disable the specified counter and wait for it to stop. This may
 790:.\Generated_Source\PSoC4/CyLFClk.c ****     *   take up to 3 LFCLK cycles.
 791:.\Generated_Source\PSoC4/CyLFClk.c ****     *
 792:.\Generated_Source\PSoC4/CyLFClk.c ****     *******************************************************************************/
 793:.\Generated_Source\PSoC4/CyLFClk.c ****     void CySysWdtSetCascade(uint32 cascadeMask)
 794:.\Generated_Source\PSoC4/CyLFClk.c ****     {
 795:.\Generated_Source\PSoC4/CyLFClk.c ****         uint32 configRegValue;
 796:.\Generated_Source\PSoC4/CyLFClk.c ****         uint32 countersEnableStatus;
 797:.\Generated_Source\PSoC4/CyLFClk.c **** 
 798:.\Generated_Source\PSoC4/CyLFClk.c ****         countersEnableStatus = CySysWdtGetEnabledStatus(CY_SYS_WDT_COUNTER0) |
 799:.\Generated_Source\PSoC4/CyLFClk.c ****                             CySysWdtGetEnabledStatus(CY_SYS_WDT_COUNTER1) |
 800:.\Generated_Source\PSoC4/CyLFClk.c ****                             CySysWdtGetEnabledStatus(CY_SYS_WDT_COUNTER2);
 801:.\Generated_Source\PSoC4/CyLFClk.c **** 
 802:.\Generated_Source\PSoC4/CyLFClk.c ****         if (0u == countersEnableStatus)
 803:.\Generated_Source\PSoC4/CyLFClk.c ****         {
 804:.\Generated_Source\PSoC4/CyLFClk.c ****             configRegValue = CY_SYS_WDT_CONFIG_REG;
 805:.\Generated_Source\PSoC4/CyLFClk.c ****             configRegValue &= ((uint32)(~(CY_SYS_WDT_CASCADE_01|CY_SYS_WDT_CASCADE_12)));
 806:.\Generated_Source\PSoC4/CyLFClk.c ****             configRegValue |= cascadeMask;
 807:.\Generated_Source\PSoC4/CyLFClk.c ****             CY_SYS_WDT_CONFIG_REG = configRegValue;
 808:.\Generated_Source\PSoC4/CyLFClk.c ****         }
 809:.\Generated_Source\PSoC4/CyLFClk.c ****     }
 810:.\Generated_Source\PSoC4/CyLFClk.c **** 
 811:.\Generated_Source\PSoC4/CyLFClk.c **** 
 812:.\Generated_Source\PSoC4/CyLFClk.c ****     /*******************************************************************************
 813:.\Generated_Source\PSoC4/CyLFClk.c ****     * Function Name: CySysWdtGetCascade
 814:.\Generated_Source\PSoC4/CyLFClk.c ****     ********************************************************************************
 815:.\Generated_Source\PSoC4/CyLFClk.c ****     *
ARM GAS  C:\Users\Tim\AppData\Local\Temp\cc4ChIIk.s 			page 31


 816:.\Generated_Source\PSoC4/CyLFClk.c ****     * Summary:
 817:.\Generated_Source\PSoC4/CyLFClk.c ****     *   Reads the two WDT cascade values returning a mask of the bits set.
 818:.\Generated_Source\PSoC4/CyLFClk.c ****     *
 819:.\Generated_Source\PSoC4/CyLFClk.c ****     * Parameters:
 820:.\Generated_Source\PSoC4/CyLFClk.c ****     *   None.
 821:.\Generated_Source\PSoC4/CyLFClk.c ****     *
 822:.\Generated_Source\PSoC4/CyLFClk.c ****     * Return:
 823:.\Generated_Source\PSoC4/CyLFClk.c ****     *   The mask of the cascade values set.
 824:.\Generated_Source\PSoC4/CyLFClk.c ****     *   Define                     Cascade
 825:.\Generated_Source\PSoC4/CyLFClk.c ****     *   CY_SYS_WDT_CASCADE_NONE    Neither
 826:.\Generated_Source\PSoC4/CyLFClk.c ****     *   CY_SYS_WDT_CASCADE_01      Cascade 01
 827:.\Generated_Source\PSoC4/CyLFClk.c ****     *   CY_SYS_WDT_CASCADE_12      Cascade 12
 828:.\Generated_Source\PSoC4/CyLFClk.c ****     *
 829:.\Generated_Source\PSoC4/CyLFClk.c ****     *******************************************************************************/
 830:.\Generated_Source\PSoC4/CyLFClk.c ****     uint32 CySysWdtGetCascade(void)
 831:.\Generated_Source\PSoC4/CyLFClk.c ****     {
 832:.\Generated_Source\PSoC4/CyLFClk.c ****         return (CY_SYS_WDT_CONFIG_REG & (CY_SYS_WDT_CASCADE_01 | CY_SYS_WDT_CASCADE_12));
 833:.\Generated_Source\PSoC4/CyLFClk.c ****     }
 834:.\Generated_Source\PSoC4/CyLFClk.c **** 
 835:.\Generated_Source\PSoC4/CyLFClk.c **** 
 836:.\Generated_Source\PSoC4/CyLFClk.c ****     /*******************************************************************************
 837:.\Generated_Source\PSoC4/CyLFClk.c ****     * Function Name: CySysWdtSetMatch
 838:.\Generated_Source\PSoC4/CyLFClk.c ****     ********************************************************************************
 839:.\Generated_Source\PSoC4/CyLFClk.c ****     *
 840:.\Generated_Source\PSoC4/CyLFClk.c ****     * Summary:
 841:.\Generated_Source\PSoC4/CyLFClk.c ****     *  Configures the WDT counter match comparison value.
 842:.\Generated_Source\PSoC4/CyLFClk.c ****     *
 843:.\Generated_Source\PSoC4/CyLFClk.c ****     * Parameters:
 844:.\Generated_Source\PSoC4/CyLFClk.c ****     *  counterNum:
 845:.\Generated_Source\PSoC4/CyLFClk.c ****     *   Valid range [0-1]. The number of the WDT counter. The match values are not
 846:.\Generated_Source\PSoC4/CyLFClk.c ****     *   supported by counter 2.
 847:.\Generated_Source\PSoC4/CyLFClk.c ****     *
 848:.\Generated_Source\PSoC4/CyLFClk.c ****     *  match:
 849:.\Generated_Source\PSoC4/CyLFClk.c ****     *   Valid range [0-65535]. The value to be used to match against the counter.
 850:.\Generated_Source\PSoC4/CyLFClk.c ****     *
 851:.\Generated_Source\PSoC4/CyLFClk.c ****     * Return:
 852:.\Generated_Source\PSoC4/CyLFClk.c ****     *   None.
 853:.\Generated_Source\PSoC4/CyLFClk.c ****     *
 854:.\Generated_Source\PSoC4/CyLFClk.c ****     *******************************************************************************/
 855:.\Generated_Source\PSoC4/CyLFClk.c ****     void CySysWdtSetMatch(uint32 counterNum, uint32 match)
 856:.\Generated_Source\PSoC4/CyLFClk.c ****     {
 857:.\Generated_Source\PSoC4/CyLFClk.c ****         uint32 regValue;
 858:.\Generated_Source\PSoC4/CyLFClk.c **** 
 859:.\Generated_Source\PSoC4/CyLFClk.c ****         CYASSERT((counterNum == CY_SYS_WDT_COUNTER0) ||
 860:.\Generated_Source\PSoC4/CyLFClk.c ****                  (counterNum == CY_SYS_WDT_COUNTER1));
 861:.\Generated_Source\PSoC4/CyLFClk.c **** 
 862:.\Generated_Source\PSoC4/CyLFClk.c ****         /* Wait for previous changes to come into effect */
 863:.\Generated_Source\PSoC4/CyLFClk.c ****         CyDelayUs(CY_SYS_WDT_3LFCLK_DELAY_US);
 864:.\Generated_Source\PSoC4/CyLFClk.c **** 
 865:.\Generated_Source\PSoC4/CyLFClk.c ****         regValue = CY_SYS_WDT_MATCH_REG;
 866:.\Generated_Source\PSoC4/CyLFClk.c ****         regValue &= (uint32)~((uint32)(CY_SYS_WDT_LOWER_16BITS_MASK << (counterNum * CY_SYS_WDT_CNT
 867:.\Generated_Source\PSoC4/CyLFClk.c ****         CY_SYS_WDT_MATCH_REG = (regValue | (match << (counterNum * CY_SYS_WDT_CNT_MATCH_SHIFT)));
 868:.\Generated_Source\PSoC4/CyLFClk.c **** 
 869:.\Generated_Source\PSoC4/CyLFClk.c ****         /* Make sure match synchronization has started */
 870:.\Generated_Source\PSoC4/CyLFClk.c ****         CyDelayUs(CY_SYS_WDT_1LFCLK_DELAY_US);
 871:.\Generated_Source\PSoC4/CyLFClk.c ****     }
 872:.\Generated_Source\PSoC4/CyLFClk.c **** 
ARM GAS  C:\Users\Tim\AppData\Local\Temp\cc4ChIIk.s 			page 32


 873:.\Generated_Source\PSoC4/CyLFClk.c **** 
 874:.\Generated_Source\PSoC4/CyLFClk.c ****     /*******************************************************************************
 875:.\Generated_Source\PSoC4/CyLFClk.c ****     * Function Name: CySysWdtSetToggleBit
 876:.\Generated_Source\PSoC4/CyLFClk.c ****     ********************************************************************************
 877:.\Generated_Source\PSoC4/CyLFClk.c ****     *
 878:.\Generated_Source\PSoC4/CyLFClk.c ****     * Summary:
 879:.\Generated_Source\PSoC4/CyLFClk.c ****     *  Configures which bit in WDT counter 2 to monitor for a toggle. When that
 880:.\Generated_Source\PSoC4/CyLFClk.c ****     *  bit toggles, an interrupt is generated if the mode for counter 2 has
 881:.\Generated_Source\PSoC4/CyLFClk.c ****     *  enabled interrupts.
 882:.\Generated_Source\PSoC4/CyLFClk.c ****     *
 883:.\Generated_Source\PSoC4/CyLFClk.c ****     * Parameters:
 884:.\Generated_Source\PSoC4/CyLFClk.c ****     *  bit:
 885:.\Generated_Source\PSoC4/CyLFClk.c ****     *   Valid range [0-31].  Counter 2 bit to monitor for a toggle.
 886:.\Generated_Source\PSoC4/CyLFClk.c ****     *
 887:.\Generated_Source\PSoC4/CyLFClk.c ****     * Return:
 888:.\Generated_Source\PSoC4/CyLFClk.c ****     *   None.
 889:.\Generated_Source\PSoC4/CyLFClk.c ****     *
 890:.\Generated_Source\PSoC4/CyLFClk.c ****     * Side effects:
 891:.\Generated_Source\PSoC4/CyLFClk.c ****     *   WDT Counter 2 should be disabled. Otherwise this function call has no
 892:.\Generated_Source\PSoC4/CyLFClk.c ****     *   effect.
 893:.\Generated_Source\PSoC4/CyLFClk.c ****     *
 894:.\Generated_Source\PSoC4/CyLFClk.c ****     *   If the specified counter is enabled, call the CySysWdtDisable() function with
 895:.\Generated_Source\PSoC4/CyLFClk.c ****     *   the corresponding parameter to disable the specified counter and wait for it to
 896:.\Generated_Source\PSoC4/CyLFClk.c ****     *   stop. This may take up to 3 LFCLK cycles.
 897:.\Generated_Source\PSoC4/CyLFClk.c ****     *
 898:.\Generated_Source\PSoC4/CyLFClk.c ****     *******************************************************************************/
 899:.\Generated_Source\PSoC4/CyLFClk.c ****     void CySysWdtSetToggleBit(uint32 bits)
 900:.\Generated_Source\PSoC4/CyLFClk.c ****     {
 901:.\Generated_Source\PSoC4/CyLFClk.c ****         uint32 configRegValue;
 902:.\Generated_Source\PSoC4/CyLFClk.c **** 
 903:.\Generated_Source\PSoC4/CyLFClk.c ****         if (0u == CySysWdtGetEnabledStatus(CY_SYS_WDT_COUNTER2))
 904:.\Generated_Source\PSoC4/CyLFClk.c ****         {
 905:.\Generated_Source\PSoC4/CyLFClk.c ****             configRegValue = CY_SYS_WDT_CONFIG_REG;
 906:.\Generated_Source\PSoC4/CyLFClk.c ****             configRegValue &= (uint32)(~((uint32)(CY_SYS_WDT_CONFIG_BITS2_MASK << CY_SYS_WDT_CONFIG
 907:.\Generated_Source\PSoC4/CyLFClk.c ****             configRegValue |= ((bits & CY_SYS_WDT_CONFIG_BITS2_MASK) << CY_SYS_WDT_CONFIG_BITS2_POS
 908:.\Generated_Source\PSoC4/CyLFClk.c ****             CY_SYS_WDT_CONFIG_REG = configRegValue;
 909:.\Generated_Source\PSoC4/CyLFClk.c ****         }
 910:.\Generated_Source\PSoC4/CyLFClk.c ****     }
 911:.\Generated_Source\PSoC4/CyLFClk.c **** 
 912:.\Generated_Source\PSoC4/CyLFClk.c **** 
 913:.\Generated_Source\PSoC4/CyLFClk.c ****     /*******************************************************************************
 914:.\Generated_Source\PSoC4/CyLFClk.c ****     * Function Name: CySysWdtGetToggleBit
 915:.\Generated_Source\PSoC4/CyLFClk.c ****     ********************************************************************************
 916:.\Generated_Source\PSoC4/CyLFClk.c ****     *
 917:.\Generated_Source\PSoC4/CyLFClk.c ****     * Summary:
 918:.\Generated_Source\PSoC4/CyLFClk.c ****     *  Reads which bit in WDT counter 2 is monitored for a toggle.
 919:.\Generated_Source\PSoC4/CyLFClk.c ****     *
 920:.\Generated_Source\PSoC4/CyLFClk.c ****     * Parameters:
 921:.\Generated_Source\PSoC4/CyLFClk.c ****     *  None.
 922:.\Generated_Source\PSoC4/CyLFClk.c ****     *
 923:.\Generated_Source\PSoC4/CyLFClk.c ****     * Return:
 924:.\Generated_Source\PSoC4/CyLFClk.c ****     *  The bit that is monitored (range of 0 to 31)
 925:.\Generated_Source\PSoC4/CyLFClk.c ****     *
 926:.\Generated_Source\PSoC4/CyLFClk.c ****     *******************************************************************************/
 927:.\Generated_Source\PSoC4/CyLFClk.c ****     uint32 CySysWdtGetToggleBit(void)
 928:.\Generated_Source\PSoC4/CyLFClk.c ****     {
 929:.\Generated_Source\PSoC4/CyLFClk.c ****         return ((CY_SYS_WDT_CONFIG_REG >> CY_SYS_WDT_CONFIG_BITS2_POS) & CY_SYS_WDT_CONFIG_BITS2_MA
ARM GAS  C:\Users\Tim\AppData\Local\Temp\cc4ChIIk.s 			page 33


 930:.\Generated_Source\PSoC4/CyLFClk.c ****     }
 931:.\Generated_Source\PSoC4/CyLFClk.c **** 
 932:.\Generated_Source\PSoC4/CyLFClk.c **** 
 933:.\Generated_Source\PSoC4/CyLFClk.c ****     /*******************************************************************************
 934:.\Generated_Source\PSoC4/CyLFClk.c ****     * Function Name: CySysWdtGetMatch
 935:.\Generated_Source\PSoC4/CyLFClk.c ****     ********************************************************************************
 936:.\Generated_Source\PSoC4/CyLFClk.c ****     *
 937:.\Generated_Source\PSoC4/CyLFClk.c ****     * Summary:
 938:.\Generated_Source\PSoC4/CyLFClk.c ****     *  Reads the WDT counter match comparison value.
 939:.\Generated_Source\PSoC4/CyLFClk.c ****     *
 940:.\Generated_Source\PSoC4/CyLFClk.c ****     * Parameters:
 941:.\Generated_Source\PSoC4/CyLFClk.c ****     *  counterNum: Valid range [0-1].  The number of the WDT counter.  The match values
 942:.\Generated_Source\PSoC4/CyLFClk.c ****     *               are not supported by counter 2.
 943:.\Generated_Source\PSoC4/CyLFClk.c ****     *
 944:.\Generated_Source\PSoC4/CyLFClk.c ****     * Return:
 945:.\Generated_Source\PSoC4/CyLFClk.c ****     *  A 16-bit match value.
 946:.\Generated_Source\PSoC4/CyLFClk.c ****     *
 947:.\Generated_Source\PSoC4/CyLFClk.c ****     *******************************************************************************/
 948:.\Generated_Source\PSoC4/CyLFClk.c ****     uint32 CySysWdtGetMatch(uint32 counterNum)
 949:.\Generated_Source\PSoC4/CyLFClk.c ****     {
 950:.\Generated_Source\PSoC4/CyLFClk.c ****         CYASSERT((counterNum == CY_SYS_WDT_COUNTER0) ||
 951:.\Generated_Source\PSoC4/CyLFClk.c ****                  (counterNum == CY_SYS_WDT_COUNTER1));
 952:.\Generated_Source\PSoC4/CyLFClk.c **** 
 953:.\Generated_Source\PSoC4/CyLFClk.c ****         return ((uint32)(CY_SYS_WDT_MATCH_REG >> (counterNum * CY_SYS_WDT_CNT_MATCH_SHIFT)) & CY_SY
 954:.\Generated_Source\PSoC4/CyLFClk.c ****     }
 955:.\Generated_Source\PSoC4/CyLFClk.c **** 
 956:.\Generated_Source\PSoC4/CyLFClk.c **** 
 957:.\Generated_Source\PSoC4/CyLFClk.c ****     /*******************************************************************************
 958:.\Generated_Source\PSoC4/CyLFClk.c ****     * Function Name: CySysWdtGetCount
 959:.\Generated_Source\PSoC4/CyLFClk.c ****     ********************************************************************************
 960:.\Generated_Source\PSoC4/CyLFClk.c ****     *
 961:.\Generated_Source\PSoC4/CyLFClk.c ****     * Summary:
 962:.\Generated_Source\PSoC4/CyLFClk.c ****     *  Reads the current WDT counter value.
 963:.\Generated_Source\PSoC4/CyLFClk.c ****     *
 964:.\Generated_Source\PSoC4/CyLFClk.c ****     * Parameters:
 965:.\Generated_Source\PSoC4/CyLFClk.c ****     *  counterNum: Valid range [0-2].  The number of the WDT counter.
 966:.\Generated_Source\PSoC4/CyLFClk.c ****     *
 967:.\Generated_Source\PSoC4/CyLFClk.c ****     * Return:
 968:.\Generated_Source\PSoC4/CyLFClk.c ****     *  A live counter value.  Counter 0 and 1 are 16 bit counters and counter
 969:.\Generated_Source\PSoC4/CyLFClk.c ****     *  2 is a 32 bit counter.
 970:.\Generated_Source\PSoC4/CyLFClk.c ****     *
 971:.\Generated_Source\PSoC4/CyLFClk.c ****     *******************************************************************************/
 972:.\Generated_Source\PSoC4/CyLFClk.c ****     uint32 CySysWdtGetCount(uint32 counterNum)
 973:.\Generated_Source\PSoC4/CyLFClk.c ****     {
 974:.\Generated_Source\PSoC4/CyLFClk.c ****         uint32 regValue = 0u;
 975:.\Generated_Source\PSoC4/CyLFClk.c **** 
 976:.\Generated_Source\PSoC4/CyLFClk.c ****         switch(counterNum)
 977:.\Generated_Source\PSoC4/CyLFClk.c ****         {
 978:.\Generated_Source\PSoC4/CyLFClk.c ****             /* WDT Counter 0 */
 979:.\Generated_Source\PSoC4/CyLFClk.c ****             case 0u:
 980:.\Generated_Source\PSoC4/CyLFClk.c ****                 regValue = CY_SYS_WDT_CTRLOW_REG & CY_SYS_WDT_LOWER_16BITS_MASK;
 981:.\Generated_Source\PSoC4/CyLFClk.c ****             break;
 982:.\Generated_Source\PSoC4/CyLFClk.c **** 
 983:.\Generated_Source\PSoC4/CyLFClk.c ****             /* WDT Counter 1 */
 984:.\Generated_Source\PSoC4/CyLFClk.c ****             case 1u:
 985:.\Generated_Source\PSoC4/CyLFClk.c ****                 regValue = (CY_SYS_WDT_CTRLOW_REG >> CY_SYS_WDT_CNT_MATCH_SHIFT) & CY_SYS_WDT_LOWER
 986:.\Generated_Source\PSoC4/CyLFClk.c ****             break;
ARM GAS  C:\Users\Tim\AppData\Local\Temp\cc4ChIIk.s 			page 34


 987:.\Generated_Source\PSoC4/CyLFClk.c **** 
 988:.\Generated_Source\PSoC4/CyLFClk.c ****             /* WDT Counter 2 */
 989:.\Generated_Source\PSoC4/CyLFClk.c ****             case 2u:
 990:.\Generated_Source\PSoC4/CyLFClk.c ****                 regValue = CY_SYS_WDT_CTRHIGH_REG;
 991:.\Generated_Source\PSoC4/CyLFClk.c ****             break;
 992:.\Generated_Source\PSoC4/CyLFClk.c **** 
 993:.\Generated_Source\PSoC4/CyLFClk.c ****             default:
 994:.\Generated_Source\PSoC4/CyLFClk.c ****                 CYASSERT(0u != 0u);
 995:.\Generated_Source\PSoC4/CyLFClk.c ****             break;
 996:.\Generated_Source\PSoC4/CyLFClk.c ****         }
 997:.\Generated_Source\PSoC4/CyLFClk.c **** 
 998:.\Generated_Source\PSoC4/CyLFClk.c ****         return (regValue);
 999:.\Generated_Source\PSoC4/CyLFClk.c ****     }
1000:.\Generated_Source\PSoC4/CyLFClk.c **** 
1001:.\Generated_Source\PSoC4/CyLFClk.c **** 
1002:.\Generated_Source\PSoC4/CyLFClk.c ****     /*******************************************************************************
1003:.\Generated_Source\PSoC4/CyLFClk.c ****     * Function Name: CySysWdtGetInterruptSource
1004:.\Generated_Source\PSoC4/CyLFClk.c ****     ********************************************************************************
1005:.\Generated_Source\PSoC4/CyLFClk.c ****     *
1006:.\Generated_Source\PSoC4/CyLFClk.c ****     * Summary:
1007:.\Generated_Source\PSoC4/CyLFClk.c ****     *   Reads a mask containing all the WDT counters interrupts that are currently
1008:.\Generated_Source\PSoC4/CyLFClk.c ****     *   set by the hardware, if a corresponding mode is selected.
1009:.\Generated_Source\PSoC4/CyLFClk.c ****     *
1010:.\Generated_Source\PSoC4/CyLFClk.c ****     * Parameters:
1011:.\Generated_Source\PSoC4/CyLFClk.c ****     *   None.
1012:.\Generated_Source\PSoC4/CyLFClk.c ****     *
1013:.\Generated_Source\PSoC4/CyLFClk.c ****     * Return:
1014:.\Generated_Source\PSoC4/CyLFClk.c ****     *   The mask of interrupts set.
1015:.\Generated_Source\PSoC4/CyLFClk.c ****     *   Define                    Counter
1016:.\Generated_Source\PSoC4/CyLFClk.c ****     *   CY_SYS_WDT_COUNTER0_INT    0
1017:.\Generated_Source\PSoC4/CyLFClk.c ****     *   CY_SYS_WDT_COUNTER1_INT    1
1018:.\Generated_Source\PSoC4/CyLFClk.c ****     *   CY_SYS_WDT_COUNTER2_INT    2
1019:.\Generated_Source\PSoC4/CyLFClk.c ****     *
1020:.\Generated_Source\PSoC4/CyLFClk.c ****     *******************************************************************************/
1021:.\Generated_Source\PSoC4/CyLFClk.c ****     uint32 CySysWdtGetInterruptSource(void)
1022:.\Generated_Source\PSoC4/CyLFClk.c ****     {
1023:.\Generated_Source\PSoC4/CyLFClk.c ****         return (CY_SYS_WDT_CONTROL_REG & (CY_SYS_WDT_COUNTER0_INT | CY_SYS_WDT_COUNTER1_INT | CY_SY
1024:.\Generated_Source\PSoC4/CyLFClk.c ****     }
1025:.\Generated_Source\PSoC4/CyLFClk.c **** 
1026:.\Generated_Source\PSoC4/CyLFClk.c **** 
1027:.\Generated_Source\PSoC4/CyLFClk.c ****     /*******************************************************************************
1028:.\Generated_Source\PSoC4/CyLFClk.c ****     * Function Name: CySysWdtClearInterrupt
1029:.\Generated_Source\PSoC4/CyLFClk.c ****     ********************************************************************************
1030:.\Generated_Source\PSoC4/CyLFClk.c ****     *
1031:.\Generated_Source\PSoC4/CyLFClk.c ****     * Summary:
1032:.\Generated_Source\PSoC4/CyLFClk.c ****     *   Clears all the WDT counter interrupts set in the mask. Calling this function
1033:.\Generated_Source\PSoC4/CyLFClk.c ****     *   also prevents from Reset when the counter mode is set to generate
1034:.\Generated_Source\PSoC4/CyLFClk.c ****     *   3 interrupts and then the device resets.
1035:.\Generated_Source\PSoC4/CyLFClk.c ****     *
1036:.\Generated_Source\PSoC4/CyLFClk.c ****     *   All the WDT interrupts are to be cleared by the firmware, otherwise
1037:.\Generated_Source\PSoC4/CyLFClk.c ****     *   interrupts are generated continuously.
1038:.\Generated_Source\PSoC4/CyLFClk.c ****     *
1039:.\Generated_Source\PSoC4/CyLFClk.c ****     * Parameters:
1040:.\Generated_Source\PSoC4/CyLFClk.c ****     *   counterMask: The mask of all the counters to enable.
1041:.\Generated_Source\PSoC4/CyLFClk.c ****     *   Define                    Counter
1042:.\Generated_Source\PSoC4/CyLFClk.c ****     *   CY_SYS_WDT_COUNTER0_INT    0
1043:.\Generated_Source\PSoC4/CyLFClk.c ****     *   CY_SYS_WDT_COUNTER1_INT    1
ARM GAS  C:\Users\Tim\AppData\Local\Temp\cc4ChIIk.s 			page 35


1044:.\Generated_Source\PSoC4/CyLFClk.c ****     *   CY_SYS_WDT_COUNTER2_INT    2
1045:.\Generated_Source\PSoC4/CyLFClk.c ****     *
1046:.\Generated_Source\PSoC4/CyLFClk.c ****     * Return:
1047:.\Generated_Source\PSoC4/CyLFClk.c ****     *   None
1048:.\Generated_Source\PSoC4/CyLFClk.c ****     *
1049:.\Generated_Source\PSoC4/CyLFClk.c ****     * Side effects:
1050:.\Generated_Source\PSoC4/CyLFClk.c ****     *   This function temporary removes the watchdog lock, if it was set, and
1051:.\Generated_Source\PSoC4/CyLFClk.c ****     *   restores the lock state after cleaning the WDT interrupts that are set in
1052:.\Generated_Source\PSoC4/CyLFClk.c ****     *   a mask.
1053:.\Generated_Source\PSoC4/CyLFClk.c ****     *
1054:.\Generated_Source\PSoC4/CyLFClk.c ****     *******************************************************************************/
1055:.\Generated_Source\PSoC4/CyLFClk.c ****     void CySysWdtClearInterrupt(uint32 counterMask)
1056:.\Generated_Source\PSoC4/CyLFClk.c ****     {
1057:.\Generated_Source\PSoC4/CyLFClk.c ****         uint8 interruptState;
1058:.\Generated_Source\PSoC4/CyLFClk.c ****         uint32 wdtLockState;
1059:.\Generated_Source\PSoC4/CyLFClk.c **** 
1060:.\Generated_Source\PSoC4/CyLFClk.c ****         interruptState = CyEnterCriticalSection();
1061:.\Generated_Source\PSoC4/CyLFClk.c **** 
1062:.\Generated_Source\PSoC4/CyLFClk.c ****         if (0u != CySysWdtLocked())
1063:.\Generated_Source\PSoC4/CyLFClk.c ****         {
1064:.\Generated_Source\PSoC4/CyLFClk.c ****             wdtLockState = 1u;
1065:.\Generated_Source\PSoC4/CyLFClk.c ****             CySysWdtUnlock();
1066:.\Generated_Source\PSoC4/CyLFClk.c ****         }
1067:.\Generated_Source\PSoC4/CyLFClk.c ****         else
1068:.\Generated_Source\PSoC4/CyLFClk.c ****         {
1069:.\Generated_Source\PSoC4/CyLFClk.c ****             wdtLockState = 0u;
1070:.\Generated_Source\PSoC4/CyLFClk.c ****         }
1071:.\Generated_Source\PSoC4/CyLFClk.c **** 
1072:.\Generated_Source\PSoC4/CyLFClk.c ****         /* Set new WDT control register value */
1073:.\Generated_Source\PSoC4/CyLFClk.c ****         counterMask &= (CY_SYS_WDT_COUNTER0_INT |
1074:.\Generated_Source\PSoC4/CyLFClk.c ****                         CY_SYS_WDT_COUNTER1_INT |
1075:.\Generated_Source\PSoC4/CyLFClk.c ****                         CY_SYS_WDT_COUNTER2_INT);
1076:.\Generated_Source\PSoC4/CyLFClk.c **** 
1077:.\Generated_Source\PSoC4/CyLFClk.c ****         CY_SYS_WDT_CONTROL_REG = counterMask | (CY_SYS_WDT_CONTROL_REG & ~(CY_SYS_WDT_COUNTER0_INT 
1078:.\Generated_Source\PSoC4/CyLFClk.c ****                                                                            CY_SYS_WDT_COUNTER1_INT 
1079:.\Generated_Source\PSoC4/CyLFClk.c ****                                                                            CY_SYS_WDT_COUNTER2_INT)
1080:.\Generated_Source\PSoC4/CyLFClk.c **** 
1081:.\Generated_Source\PSoC4/CyLFClk.c ****         /* Read the CY_SYS_WDT_CONTROL_REG to clear the interrupt request.
1082:.\Generated_Source\PSoC4/CyLFClk.c ****          * Cypress ID #207093, #206231
1083:.\Generated_Source\PSoC4/CyLFClk.c ****         */
1084:.\Generated_Source\PSoC4/CyLFClk.c ****         (void)CY_SYS_WDT_CONTROL_REG;
1085:.\Generated_Source\PSoC4/CyLFClk.c **** 
1086:.\Generated_Source\PSoC4/CyLFClk.c ****         if (1u == wdtLockState)
1087:.\Generated_Source\PSoC4/CyLFClk.c ****         {
1088:.\Generated_Source\PSoC4/CyLFClk.c ****             CySysWdtLock();
1089:.\Generated_Source\PSoC4/CyLFClk.c ****         }
1090:.\Generated_Source\PSoC4/CyLFClk.c **** 
1091:.\Generated_Source\PSoC4/CyLFClk.c ****         CyExitCriticalSection(interruptState);
1092:.\Generated_Source\PSoC4/CyLFClk.c ****     }
1093:.\Generated_Source\PSoC4/CyLFClk.c **** 
1094:.\Generated_Source\PSoC4/CyLFClk.c **** 
1095:.\Generated_Source\PSoC4/CyLFClk.c ****     /*******************************************************************************
1096:.\Generated_Source\PSoC4/CyLFClk.c ****     * Function Name: CySysWdtResetCounters
1097:.\Generated_Source\PSoC4/CyLFClk.c ****     ********************************************************************************
1098:.\Generated_Source\PSoC4/CyLFClk.c ****     *
1099:.\Generated_Source\PSoC4/CyLFClk.c ****     * Summary:
1100:.\Generated_Source\PSoC4/CyLFClk.c ****     *  Resets all the WDT counters set in the mask.
ARM GAS  C:\Users\Tim\AppData\Local\Temp\cc4ChIIk.s 			page 36


1101:.\Generated_Source\PSoC4/CyLFClk.c ****     *
1102:.\Generated_Source\PSoC4/CyLFClk.c ****     * Parameters:
1103:.\Generated_Source\PSoC4/CyLFClk.c ****     *  counterMask: The mask of all the counters to reset.
1104:.\Generated_Source\PSoC4/CyLFClk.c ****     *   Define                       Counter
1105:.\Generated_Source\PSoC4/CyLFClk.c ****     *   CY_SYS_WDT_COUNTER0_RESET    0
1106:.\Generated_Source\PSoC4/CyLFClk.c ****     *   CY_SYS_WDT_COUNTER1_RESET    1
1107:.\Generated_Source\PSoC4/CyLFClk.c ****     *   CY_SYS_WDT_COUNTER2_RESET    2
1108:.\Generated_Source\PSoC4/CyLFClk.c ****     *
1109:.\Generated_Source\PSoC4/CyLFClk.c ****     * Return:
1110:.\Generated_Source\PSoC4/CyLFClk.c ****     *   None
1111:.\Generated_Source\PSoC4/CyLFClk.c ****     *
1112:.\Generated_Source\PSoC4/CyLFClk.c ****     * Side effects:
1113:.\Generated_Source\PSoC4/CyLFClk.c ****     *   This function does not reset counter values if the Watchdog is locked.
1114:.\Generated_Source\PSoC4/CyLFClk.c ****     *   This function waits while corresponding counters will be reset. This may
1115:.\Generated_Source\PSoC4/CyLFClk.c ****     *   take up to 3 LFCLK cycles.
1116:.\Generated_Source\PSoC4/CyLFClk.c ****     *   The LFCLK source must be enabled. Otherwise, the function will never exit.
1117:.\Generated_Source\PSoC4/CyLFClk.c ****     *
1118:.\Generated_Source\PSoC4/CyLFClk.c ****     *******************************************************************************/
1119:.\Generated_Source\PSoC4/CyLFClk.c ****     void CySysWdtResetCounters(uint32 countersMask)
1120:.\Generated_Source\PSoC4/CyLFClk.c ****     {
1121:.\Generated_Source\PSoC4/CyLFClk.c ****         /* Set new WDT reset value */
1122:.\Generated_Source\PSoC4/CyLFClk.c ****         CY_SYS_WDT_CONTROL_REG |= (countersMask & CY_SYS_WDT_COUNTERS_RESET);
1123:.\Generated_Source\PSoC4/CyLFClk.c **** 
1124:.\Generated_Source\PSoC4/CyLFClk.c ****         while (0uL != (CY_SYS_WDT_CONTROL_REG & CY_SYS_WDT_COUNTERS_RESET))
1125:.\Generated_Source\PSoC4/CyLFClk.c ****         {
1126:.\Generated_Source\PSoC4/CyLFClk.c ****             /* Wait for reset to come into effect */
1127:.\Generated_Source\PSoC4/CyLFClk.c ****         }
1128:.\Generated_Source\PSoC4/CyLFClk.c ****     }
1129:.\Generated_Source\PSoC4/CyLFClk.c **** 
1130:.\Generated_Source\PSoC4/CyLFClk.c **** 
1131:.\Generated_Source\PSoC4/CyLFClk.c ****     /*******************************************************************************
1132:.\Generated_Source\PSoC4/CyLFClk.c ****     * Function Name: CySysWdtSetInterruptCallback
1133:.\Generated_Source\PSoC4/CyLFClk.c ****     ********************************************************************************
1134:.\Generated_Source\PSoC4/CyLFClk.c ****     *
1135:.\Generated_Source\PSoC4/CyLFClk.c ****     * Summary:
1136:.\Generated_Source\PSoC4/CyLFClk.c ****     *  Sets the ISR callback function for the particular WDT counter.
1137:.\Generated_Source\PSoC4/CyLFClk.c ****     *  These functions are called on the WDT interrupt.
1138:.\Generated_Source\PSoC4/CyLFClk.c ****     *
1139:.\Generated_Source\PSoC4/CyLFClk.c ****     * Parameters:
1140:.\Generated_Source\PSoC4/CyLFClk.c ****     *  counterNum : The number of the WDT counter.
1141:.\Generated_Source\PSoC4/CyLFClk.c ****     *  function   : The pointer to the callback function.
1142:.\Generated_Source\PSoC4/CyLFClk.c ****     *
1143:.\Generated_Source\PSoC4/CyLFClk.c ****     * Return:
1144:.\Generated_Source\PSoC4/CyLFClk.c ****     *  The pointer to the previous callback function.
1145:.\Generated_Source\PSoC4/CyLFClk.c ****     *  NULL is returned if the specified address is not set.
1146:.\Generated_Source\PSoC4/CyLFClk.c ****     *
1147:.\Generated_Source\PSoC4/CyLFClk.c ****     *******************************************************************************/
1148:.\Generated_Source\PSoC4/CyLFClk.c ****     cyWdtCallback CySysWdtSetInterruptCallback(uint32 counterNum, cyWdtCallback function)
1149:.\Generated_Source\PSoC4/CyLFClk.c ****     {
1150:.\Generated_Source\PSoC4/CyLFClk.c ****         cyWdtCallback prevCallback = (void *)0;
1151:.\Generated_Source\PSoC4/CyLFClk.c **** 
1152:.\Generated_Source\PSoC4/CyLFClk.c ****         if(counterNum < CY_WDT_NUM_OF_WDT)
1153:.\Generated_Source\PSoC4/CyLFClk.c ****         {
1154:.\Generated_Source\PSoC4/CyLFClk.c ****             prevCallback = cySysWdtCallback[counterNum];
1155:.\Generated_Source\PSoC4/CyLFClk.c ****             cySysWdtCallback[counterNum] = function;
1156:.\Generated_Source\PSoC4/CyLFClk.c ****         }
1157:.\Generated_Source\PSoC4/CyLFClk.c ****         else
ARM GAS  C:\Users\Tim\AppData\Local\Temp\cc4ChIIk.s 			page 37


1158:.\Generated_Source\PSoC4/CyLFClk.c ****         {
1159:.\Generated_Source\PSoC4/CyLFClk.c ****             CYASSERT(0u != 0u);
1160:.\Generated_Source\PSoC4/CyLFClk.c ****         }
1161:.\Generated_Source\PSoC4/CyLFClk.c **** 
1162:.\Generated_Source\PSoC4/CyLFClk.c ****         return((cyWdtCallback)prevCallback);
1163:.\Generated_Source\PSoC4/CyLFClk.c ****     }
1164:.\Generated_Source\PSoC4/CyLFClk.c **** 
1165:.\Generated_Source\PSoC4/CyLFClk.c **** 
1166:.\Generated_Source\PSoC4/CyLFClk.c ****     /*******************************************************************************
1167:.\Generated_Source\PSoC4/CyLFClk.c ****     * Function Name: CySysWdtGetInterruptCallback
1168:.\Generated_Source\PSoC4/CyLFClk.c ****     ********************************************************************************
1169:.\Generated_Source\PSoC4/CyLFClk.c ****     *
1170:.\Generated_Source\PSoC4/CyLFClk.c ****     * Summary:
1171:.\Generated_Source\PSoC4/CyLFClk.c ****     *  Gets the ISR callback function for the particular WDT counter.
1172:.\Generated_Source\PSoC4/CyLFClk.c ****     *
1173:.\Generated_Source\PSoC4/CyLFClk.c ****     * Parameters:
1174:.\Generated_Source\PSoC4/CyLFClk.c ****     *  counterNum : The number of the WDT counter.
1175:.\Generated_Source\PSoC4/CyLFClk.c ****     *
1176:.\Generated_Source\PSoC4/CyLFClk.c ****     * Return:
1177:.\Generated_Source\PSoC4/CyLFClk.c ****     *  The pointer to the callback function registered for a particular WDT by
1178:.\Generated_Source\PSoC4/CyLFClk.c ****     *  a particular address that are passed through arguments.
1179:.\Generated_Source\PSoC4/CyLFClk.c ****     *
1180:.\Generated_Source\PSoC4/CyLFClk.c ****     *******************************************************************************/
1181:.\Generated_Source\PSoC4/CyLFClk.c ****     cyWdtCallback CySysWdtGetInterruptCallback(uint32 counterNum)
1182:.\Generated_Source\PSoC4/CyLFClk.c ****     {
1183:.\Generated_Source\PSoC4/CyLFClk.c ****         cyWdtCallback retCallback = (void *)0;
1184:.\Generated_Source\PSoC4/CyLFClk.c **** 
1185:.\Generated_Source\PSoC4/CyLFClk.c ****         if(counterNum < CY_WDT_NUM_OF_WDT)
1186:.\Generated_Source\PSoC4/CyLFClk.c ****         {
1187:.\Generated_Source\PSoC4/CyLFClk.c ****             retCallback = (cyWdtCallback)cySysWdtCallback[counterNum];
1188:.\Generated_Source\PSoC4/CyLFClk.c ****         }
1189:.\Generated_Source\PSoC4/CyLFClk.c ****         else
1190:.\Generated_Source\PSoC4/CyLFClk.c ****         {
1191:.\Generated_Source\PSoC4/CyLFClk.c ****             CYASSERT(0u != 0u);
1192:.\Generated_Source\PSoC4/CyLFClk.c ****         }
1193:.\Generated_Source\PSoC4/CyLFClk.c **** 
1194:.\Generated_Source\PSoC4/CyLFClk.c ****         return(retCallback);
1195:.\Generated_Source\PSoC4/CyLFClk.c ****     }
1196:.\Generated_Source\PSoC4/CyLFClk.c **** 
1197:.\Generated_Source\PSoC4/CyLFClk.c **** 
1198:.\Generated_Source\PSoC4/CyLFClk.c ****     /*******************************************************************************
1199:.\Generated_Source\PSoC4/CyLFClk.c ****     * Function Name: CySysWdtEnableCounterIsr
1200:.\Generated_Source\PSoC4/CyLFClk.c ****     ********************************************************************************
1201:.\Generated_Source\PSoC4/CyLFClk.c ****     *
1202:.\Generated_Source\PSoC4/CyLFClk.c ****     * Summary:
1203:.\Generated_Source\PSoC4/CyLFClk.c ****     *  Enables the ISR callback servicing for the particular WDT counter
1204:.\Generated_Source\PSoC4/CyLFClk.c ****     *
1205:.\Generated_Source\PSoC4/CyLFClk.c ****     * Parameters:
1206:.\Generated_Source\PSoC4/CyLFClk.c ****     *  counterNum: Valid range [0-2].  The number of the WDT counter.
1207:.\Generated_Source\PSoC4/CyLFClk.c ****     *
1208:.\Generated_Source\PSoC4/CyLFClk.c ****     *******************************************************************************/
1209:.\Generated_Source\PSoC4/CyLFClk.c ****     void CySysWdtEnableCounterIsr(uint32 counterNum)
1210:.\Generated_Source\PSoC4/CyLFClk.c ****     {
1211:.\Generated_Source\PSoC4/CyLFClk.c ****         if(counterNum <= CY_SYS_WDT_COUNTER2)
1212:.\Generated_Source\PSoC4/CyLFClk.c ****         {
1213:.\Generated_Source\PSoC4/CyLFClk.c ****             disableServicedIsr &= ~counterIntMaskTbl[counterNum];
1214:.\Generated_Source\PSoC4/CyLFClk.c ****             wdtIsrMask |= counterIntMaskTbl[counterNum];
ARM GAS  C:\Users\Tim\AppData\Local\Temp\cc4ChIIk.s 			page 38


1215:.\Generated_Source\PSoC4/CyLFClk.c ****         }
1216:.\Generated_Source\PSoC4/CyLFClk.c ****         else
1217:.\Generated_Source\PSoC4/CyLFClk.c ****         {
1218:.\Generated_Source\PSoC4/CyLFClk.c ****             CYASSERT(0u != 0u);
1219:.\Generated_Source\PSoC4/CyLFClk.c ****         }
1220:.\Generated_Source\PSoC4/CyLFClk.c ****     }
1221:.\Generated_Source\PSoC4/CyLFClk.c **** 
1222:.\Generated_Source\PSoC4/CyLFClk.c **** 
1223:.\Generated_Source\PSoC4/CyLFClk.c ****     /*******************************************************************************
1224:.\Generated_Source\PSoC4/CyLFClk.c ****     * Function Name: CySysWdtDisableCounterIsr
1225:.\Generated_Source\PSoC4/CyLFClk.c ****     ********************************************************************************
1226:.\Generated_Source\PSoC4/CyLFClk.c ****     *
1227:.\Generated_Source\PSoC4/CyLFClk.c ****     * Summary:
1228:.\Generated_Source\PSoC4/CyLFClk.c ****     *  Disables the ISR callback servicing for the particular WDT counter
1229:.\Generated_Source\PSoC4/CyLFClk.c ****     *
1230:.\Generated_Source\PSoC4/CyLFClk.c ****     * Parameters:
1231:.\Generated_Source\PSoC4/CyLFClk.c ****     *  counterNum: Valid range [0-2].  The number of the WDT counter.
1232:.\Generated_Source\PSoC4/CyLFClk.c ****     *
1233:.\Generated_Source\PSoC4/CyLFClk.c ****     *******************************************************************************/
1234:.\Generated_Source\PSoC4/CyLFClk.c ****     void CySysWdtDisableCounterIsr(uint32 counterNum)
1235:.\Generated_Source\PSoC4/CyLFClk.c ****     {
1236:.\Generated_Source\PSoC4/CyLFClk.c ****         if(counterNum <= CY_SYS_WDT_COUNTER2)
1237:.\Generated_Source\PSoC4/CyLFClk.c ****         {
1238:.\Generated_Source\PSoC4/CyLFClk.c ****             wdtIsrMask &= ~counterIntMaskTbl[counterNum];
1239:.\Generated_Source\PSoC4/CyLFClk.c ****         }
1240:.\Generated_Source\PSoC4/CyLFClk.c ****         else
1241:.\Generated_Source\PSoC4/CyLFClk.c ****         {
1242:.\Generated_Source\PSoC4/CyLFClk.c ****             CYASSERT(0u != 0u);
1243:.\Generated_Source\PSoC4/CyLFClk.c ****         }
1244:.\Generated_Source\PSoC4/CyLFClk.c ****     }
1245:.\Generated_Source\PSoC4/CyLFClk.c **** 
1246:.\Generated_Source\PSoC4/CyLFClk.c **** 
1247:.\Generated_Source\PSoC4/CyLFClk.c ****     /*******************************************************************************
1248:.\Generated_Source\PSoC4/CyLFClk.c ****     * Function Name: CySysWdtIsr
1249:.\Generated_Source\PSoC4/CyLFClk.c ****     ********************************************************************************
1250:.\Generated_Source\PSoC4/CyLFClk.c ****     *
1251:.\Generated_Source\PSoC4/CyLFClk.c ****     * Summary:
1252:.\Generated_Source\PSoC4/CyLFClk.c ****     *  This is the handler of the WDT interrupt in CPU NVIC. The handler checks
1253:.\Generated_Source\PSoC4/CyLFClk.c ****     *  which WDT triggered in the interrupt and calls the respective callback
1254:.\Generated_Source\PSoC4/CyLFClk.c ****     *  functions configured by the user by using CySysWdtSetIsrCallback() API.
1255:.\Generated_Source\PSoC4/CyLFClk.c ****     *
1256:.\Generated_Source\PSoC4/CyLFClk.c ****     *  The order of the callback execution is incremental. Callback-0 is
1257:.\Generated_Source\PSoC4/CyLFClk.c ****     *  run as the first one and callback-2 is called as the last one.
1258:.\Generated_Source\PSoC4/CyLFClk.c ****     *
1259:.\Generated_Source\PSoC4/CyLFClk.c ****     * Parameters:
1260:.\Generated_Source\PSoC4/CyLFClk.c ****     *  None.
1261:.\Generated_Source\PSoC4/CyLFClk.c ****     *
1262:.\Generated_Source\PSoC4/CyLFClk.c ****     * Return:
1263:.\Generated_Source\PSoC4/CyLFClk.c ****     *  None.
1264:.\Generated_Source\PSoC4/CyLFClk.c ****     *
1265:.\Generated_Source\PSoC4/CyLFClk.c ****     * Side Effects:
1266:.\Generated_Source\PSoC4/CyLFClk.c ****     *  This function clears the WDT interrupt every time when it is called.
1267:.\Generated_Source\PSoC4/CyLFClk.c ****     *  Reset after the 3rd interrupt does not happen if this function is registered
1268:.\Generated_Source\PSoC4/CyLFClk.c ****     *  as the interrupt handler even if the "Watchdog with Interrupt" mode is
1269:.\Generated_Source\PSoC4/CyLFClk.c ****     *  selected on the "Low Frequency Clocks" tab.
1270:.\Generated_Source\PSoC4/CyLFClk.c ****     *
1271:.\Generated_Source\PSoC4/CyLFClk.c ****     *******************************************************************************/
ARM GAS  C:\Users\Tim\AppData\Local\Temp\cc4ChIIk.s 			page 39


1272:.\Generated_Source\PSoC4/CyLFClk.c ****     void CySysWdtIsr(void)
1273:.\Generated_Source\PSoC4/CyLFClk.c ****     {
1274:.\Generated_Source\PSoC4/CyLFClk.c ****         if(0u != (CY_SYS_WDT_COUNTER0_INT & CY_SYS_WDT_CONTROL_REG))
1275:.\Generated_Source\PSoC4/CyLFClk.c ****         {
1276:.\Generated_Source\PSoC4/CyLFClk.c ****             if(0u != (CY_SYS_WDT_COUNTER0_INT & wdtIsrMask))
1277:.\Generated_Source\PSoC4/CyLFClk.c ****             {
1278:.\Generated_Source\PSoC4/CyLFClk.c ****                 wdtIsrMask &= ~(disableServicedIsr & CY_SYS_WDT_COUNTER0_INT);
1279:.\Generated_Source\PSoC4/CyLFClk.c ****                 disableServicedIsr  &= ~CY_SYS_WDT_COUNTER0_INT;
1280:.\Generated_Source\PSoC4/CyLFClk.c ****                 if(cySysWdtCallback[CY_SYS_WDT_COUNTER0] != (void *) 0)
1281:.\Generated_Source\PSoC4/CyLFClk.c ****                 {
1282:.\Generated_Source\PSoC4/CyLFClk.c ****                     (void)(cySysWdtCallback[CY_SYS_WDT_COUNTER0])();
1283:.\Generated_Source\PSoC4/CyLFClk.c ****                 }
1284:.\Generated_Source\PSoC4/CyLFClk.c ****             }
1285:.\Generated_Source\PSoC4/CyLFClk.c ****             CySysWdtClearInterrupt(CY_SYS_WDT_COUNTER0_INT);
1286:.\Generated_Source\PSoC4/CyLFClk.c ****         }
1287:.\Generated_Source\PSoC4/CyLFClk.c **** 
1288:.\Generated_Source\PSoC4/CyLFClk.c ****         if(0u != (CY_SYS_WDT_COUNTER1_INT & CY_SYS_WDT_CONTROL_REG))
1289:.\Generated_Source\PSoC4/CyLFClk.c ****         {
1290:.\Generated_Source\PSoC4/CyLFClk.c ****             if(0u != (CY_SYS_WDT_COUNTER1_INT & wdtIsrMask))
1291:.\Generated_Source\PSoC4/CyLFClk.c ****             {
1292:.\Generated_Source\PSoC4/CyLFClk.c ****                 wdtIsrMask &= ~(disableServicedIsr & CY_SYS_WDT_COUNTER1_INT);
1293:.\Generated_Source\PSoC4/CyLFClk.c ****                 disableServicedIsr  &= ~CY_SYS_WDT_COUNTER1_INT;
1294:.\Generated_Source\PSoC4/CyLFClk.c ****                 if(cySysWdtCallback[CY_SYS_WDT_COUNTER1] != (void *) 0)
1295:.\Generated_Source\PSoC4/CyLFClk.c ****                 {
1296:.\Generated_Source\PSoC4/CyLFClk.c ****                     (void)(cySysWdtCallback[CY_SYS_WDT_COUNTER1])();
1297:.\Generated_Source\PSoC4/CyLFClk.c ****                 }
1298:.\Generated_Source\PSoC4/CyLFClk.c ****             }
1299:.\Generated_Source\PSoC4/CyLFClk.c ****             CySysWdtClearInterrupt(CY_SYS_WDT_COUNTER1_INT);
1300:.\Generated_Source\PSoC4/CyLFClk.c ****         }
1301:.\Generated_Source\PSoC4/CyLFClk.c **** 
1302:.\Generated_Source\PSoC4/CyLFClk.c ****         if(0u != (CY_SYS_WDT_COUNTER2_INT & CY_SYS_WDT_CONTROL_REG))
1303:.\Generated_Source\PSoC4/CyLFClk.c ****         {
1304:.\Generated_Source\PSoC4/CyLFClk.c ****             if(0u != (CY_SYS_WDT_COUNTER2_INT & wdtIsrMask))
1305:.\Generated_Source\PSoC4/CyLFClk.c ****             {
1306:.\Generated_Source\PSoC4/CyLFClk.c ****                 if(cySysWdtCallback[CY_SYS_WDT_COUNTER2] != (void *) 0)
1307:.\Generated_Source\PSoC4/CyLFClk.c ****                 {
1308:.\Generated_Source\PSoC4/CyLFClk.c ****                     (void)(cySysWdtCallback[CY_SYS_WDT_COUNTER2])();
1309:.\Generated_Source\PSoC4/CyLFClk.c ****                 }
1310:.\Generated_Source\PSoC4/CyLFClk.c ****             }
1311:.\Generated_Source\PSoC4/CyLFClk.c ****             CySysWdtClearInterrupt(CY_SYS_WDT_COUNTER2_INT);
1312:.\Generated_Source\PSoC4/CyLFClk.c ****         }
1313:.\Generated_Source\PSoC4/CyLFClk.c ****     }
1314:.\Generated_Source\PSoC4/CyLFClk.c **** 
1315:.\Generated_Source\PSoC4/CyLFClk.c **** 
1316:.\Generated_Source\PSoC4/CyLFClk.c ****     /*******************************************************************************
1317:.\Generated_Source\PSoC4/CyLFClk.c ****     * Function Name: CySysTimerDelay
1318:.\Generated_Source\PSoC4/CyLFClk.c ****     ********************************************************************************
1319:.\Generated_Source\PSoC4/CyLFClk.c ****     *
1320:.\Generated_Source\PSoC4/CyLFClk.c ****     * Summary:
1321:.\Generated_Source\PSoC4/CyLFClk.c ****     *  The function implements the delay specified in the LFCLK clock ticks. The
1322:.\Generated_Source\PSoC4/CyLFClk.c ****     *  specified WDT counter should be configured as described below and started.
1323:.\Generated_Source\PSoC4/CyLFClk.c ****     *
1324:.\Generated_Source\PSoC4/CyLFClk.c ****     *  This function can operate in two modes: the "WAIT" and "INTERRUPT" modes. In
1325:.\Generated_Source\PSoC4/CyLFClk.c ****     *  the "WAIT" mode, the function waits for the specified number of ticks. In the
1326:.\Generated_Source\PSoC4/CyLFClk.c ****     *  "INTERRUPT" mode, the interrupt is generated after the specified number of
1327:.\Generated_Source\PSoC4/CyLFClk.c ****     *  ticks.
1328:.\Generated_Source\PSoC4/CyLFClk.c ****     *
ARM GAS  C:\Users\Tim\AppData\Local\Temp\cc4ChIIk.s 			page 40


1329:.\Generated_Source\PSoC4/CyLFClk.c ****     *  For the correct function operation, the "Clear On Match" option should be
1330:.\Generated_Source\PSoC4/CyLFClk.c ****     *  disabled for the specified WDT counter. Use CySysWdtSetClearOnMatch()
1331:.\Generated_Source\PSoC4/CyLFClk.c ****     *  function with the "enable" parameter equal to zero for the used WDT counter.
1332:.\Generated_Source\PSoC4/CyLFClk.c ****     *
1333:.\Generated_Source\PSoC4/CyLFClk.c ****     *  The corresponding WDT counter should be configured to match the selected
1334:.\Generated_Source\PSoC4/CyLFClk.c ****     *  mode: "Free running Timer" for the "WAIT" mode, and
1335:.\Generated_Source\PSoC4/CyLFClk.c ****     *  "Periodic Timer" / "Watchdog (w/Interrupt)" for the "INTERRUPT" mode.
1336:.\Generated_Source\PSoC4/CyLFClk.c ****     *
1337:.\Generated_Source\PSoC4/CyLFClk.c ****     *  This can be configured in two ways:
1338:.\Generated_Source\PSoC4/CyLFClk.c ****     *  - Through the DWR page. Open the "Clocks" tab, click the "Edit Clocks..."
1339:.\Generated_Source\PSoC4/CyLFClk.c ****     *    button, in the "Configure System Clocks" window click on the
1340:.\Generated_Source\PSoC4/CyLFClk.c ****     *    "Low Frequency Clocks" tab and choose the appropriate option for the used
1341:.\Generated_Source\PSoC4/CyLFClk.c ****     *    WDT counter.
1342:.\Generated_Source\PSoC4/CyLFClk.c ****     *
1343:.\Generated_Source\PSoC4/CyLFClk.c ****     *  - Through the CySysWdtSetMode() function. Call it with the appropriate mode
1344:.\Generated_Source\PSoC4/CyLFClk.c ****     *    parameter for the used WDT counter.
1345:.\Generated_Source\PSoC4/CyLFClk.c ****     *
1346:.\Generated_Source\PSoC4/CyLFClk.c ****     *  For the "INTERRUPT" mode, the recommended sequence is the following:
1347:.\Generated_Source\PSoC4/CyLFClk.c ****     *  - Call the CySysWdtDisableCounterIsr() function to disable servicing
1348:.\Generated_Source\PSoC4/CyLFClk.c ****     *    interrupts of the specified WDT counter.
1349:.\Generated_Source\PSoC4/CyLFClk.c ****     *
1350:.\Generated_Source\PSoC4/CyLFClk.c ****     *  - Call the CySysWdtSetInterruptCallback() function to register the callback
1351:.\Generated_Source\PSoC4/CyLFClk.c ****     *    function for the corresponding WDT counter.
1352:.\Generated_Source\PSoC4/CyLFClk.c ****     *
1353:.\Generated_Source\PSoC4/CyLFClk.c ****     *  - Call the CySysTimerDelay() function.
1354:.\Generated_Source\PSoC4/CyLFClk.c ****     *
1355:.\Generated_Source\PSoC4/CyLFClk.c ****     * Parameters:
1356:.\Generated_Source\PSoC4/CyLFClk.c ****     *  counterNum: Valid range [0-1]. The number of the WDT counter (WDT0 or WDT1).
1357:.\Generated_Source\PSoC4/CyLFClk.c ****     *  delayType : Defines the operation mode.
1358:.\Generated_Source\PSoC4/CyLFClk.c ****     *               CY_SYS_TIMER_WAIT       "WAIT" mode.
1359:.\Generated_Source\PSoC4/CyLFClk.c ****     *               CY_SYS_TIMER_INTERRUPT  "INTERRUPT" mode.
1360:.\Generated_Source\PSoC4/CyLFClk.c ****     *  delay:  The delay value in the LFCLK ticks (allowable range - 16-bit value).
1361:.\Generated_Source\PSoC4/CyLFClk.c ****     *
1362:.\Generated_Source\PSoC4/CyLFClk.c ****     * Return:
1363:.\Generated_Source\PSoC4/CyLFClk.c ****     *  None
1364:.\Generated_Source\PSoC4/CyLFClk.c ****     *
1365:.\Generated_Source\PSoC4/CyLFClk.c ****     * Side effects:
1366:.\Generated_Source\PSoC4/CyLFClk.c ****     *  In the "INTERRUPT" mode, this function enables ISR callback servicing
1367:.\Generated_Source\PSoC4/CyLFClk.c ****     *  from the corresponding WDT counter. Servicing of this ISR callback will be
1368:.\Generated_Source\PSoC4/CyLFClk.c ****     *  disabled after the expiration of the delay time.
1369:.\Generated_Source\PSoC4/CyLFClk.c ****     *
1370:.\Generated_Source\PSoC4/CyLFClk.c ****     *******************************************************************************/
1371:.\Generated_Source\PSoC4/CyLFClk.c ****     void CySysTimerDelay(uint32 counterNum, cy_sys_timer_delaytype_enum delayType, uint32 delay)
1372:.\Generated_Source\PSoC4/CyLFClk.c ****     {
1373:.\Generated_Source\PSoC4/CyLFClk.c ****         uint32 regValue;
1374:.\Generated_Source\PSoC4/CyLFClk.c ****         uint32 matchValue;
1375:.\Generated_Source\PSoC4/CyLFClk.c **** 
1376:.\Generated_Source\PSoC4/CyLFClk.c ****         if((counterNum < CY_SYS_WDT_COUNTER2) && (0uL == CySysWdtGetClearOnMatch(counterNum)) && (d
1377:.\Generated_Source\PSoC4/CyLFClk.c ****         {
1378:.\Generated_Source\PSoC4/CyLFClk.c ****             regValue   = CySysWdtGetCount(counterNum);
1379:.\Generated_Source\PSoC4/CyLFClk.c ****             matchValue = (regValue + delay) & (uint32)UINT16_MAX_VAL;
1380:.\Generated_Source\PSoC4/CyLFClk.c **** 
1381:.\Generated_Source\PSoC4/CyLFClk.c ****             CySysTimerDelayUntilMatch(counterNum, delayType, matchValue);
1382:.\Generated_Source\PSoC4/CyLFClk.c ****         }
1383:.\Generated_Source\PSoC4/CyLFClk.c ****         else
1384:.\Generated_Source\PSoC4/CyLFClk.c ****         {
1385:.\Generated_Source\PSoC4/CyLFClk.c ****             CYASSERT(0u != 0u);
ARM GAS  C:\Users\Tim\AppData\Local\Temp\cc4ChIIk.s 			page 41


1386:.\Generated_Source\PSoC4/CyLFClk.c ****         }
1387:.\Generated_Source\PSoC4/CyLFClk.c ****     }
1388:.\Generated_Source\PSoC4/CyLFClk.c **** 
1389:.\Generated_Source\PSoC4/CyLFClk.c **** 
1390:.\Generated_Source\PSoC4/CyLFClk.c ****     /*******************************************************************************
1391:.\Generated_Source\PSoC4/CyLFClk.c ****     * Function Name: CySysTimerDelayUntilMatch
1392:.\Generated_Source\PSoC4/CyLFClk.c ****     ********************************************************************************
1393:.\Generated_Source\PSoC4/CyLFClk.c ****     *
1394:.\Generated_Source\PSoC4/CyLFClk.c ****     * Summary:
1395:.\Generated_Source\PSoC4/CyLFClk.c ****     *  The function implements the delay specified as the number of LFCLK ticks
1396:.\Generated_Source\PSoC4/CyLFClk.c ****     *  between the specified WDT counter's current value and the "match" passed as
1397:.\Generated_Source\PSoC4/CyLFClk.c ****     *  the parameter to this function. The current WDT counter value can be obtained
1398:.\Generated_Source\PSoC4/CyLFClk.c ****     *  using the CySysWdtGetCount() function.
1399:.\Generated_Source\PSoC4/CyLFClk.c ****     *
1400:.\Generated_Source\PSoC4/CyLFClk.c ****     *  This function can operate in two modes: the "WAIT" and "INTERRUPT" mode. In
1401:.\Generated_Source\PSoC4/CyLFClk.c ****     *  the "WAIT" mode, the function waits while the used WDT counter value becomes
1402:.\Generated_Source\PSoC4/CyLFClk.c ****     *  equal to the match value. In the "INTERRUPT" mode, the interrupt is generated
1403:.\Generated_Source\PSoC4/CyLFClk.c ****     *  when the used WDT counter became equal to the "match" value.
1404:.\Generated_Source\PSoC4/CyLFClk.c ****     *
1405:.\Generated_Source\PSoC4/CyLFClk.c ****     *  For the correct function operation, the "Clear On Match" option should be
1406:.\Generated_Source\PSoC4/CyLFClk.c ****     *  disabled for the specified WDT counter. Use CySysWdtSetClearOnMatch()
1407:.\Generated_Source\PSoC4/CyLFClk.c ****     *  function with the "enable" parameter equal to zero for the used WDT counter.
1408:.\Generated_Source\PSoC4/CyLFClk.c ****     *
1409:.\Generated_Source\PSoC4/CyLFClk.c ****     *  The corresponding WDT counter should be configured to match the selected mode:
1410:.\Generated_Source\PSoC4/CyLFClk.c ****     *  "Free running Timer" for the "WAIT" mode, and "Periodic Timer" / "Watchdog
1411:.\Generated_Source\PSoC4/CyLFClk.c ****     *  (w/Interrupt)" for the "INTERRUPT" mode.
1412:.\Generated_Source\PSoC4/CyLFClk.c ****     *
1413:.\Generated_Source\PSoC4/CyLFClk.c ****     *  This can be configured in two ways:
1414:.\Generated_Source\PSoC4/CyLFClk.c ****     *  - Through the DWR page. Open the "Clocks" tab, click the "Edit Clocks..."
1415:.\Generated_Source\PSoC4/CyLFClk.c ****     *    button, in the "Configure System Clocks" window click on the
1416:.\Generated_Source\PSoC4/CyLFClk.c ****     *    "Low Frequency Clocks" tab and choose the appropriate option for the used
1417:.\Generated_Source\PSoC4/CyLFClk.c ****     *    WDT counter.
1418:.\Generated_Source\PSoC4/CyLFClk.c ****     *
1419:.\Generated_Source\PSoC4/CyLFClk.c ****     *  - Through the CySysWdtSetMode() function. Call it with the appropriate "mode"
1420:.\Generated_Source\PSoC4/CyLFClk.c ****     *    parameter for the used WDT counter.
1421:.\Generated_Source\PSoC4/CyLFClk.c ****     *
1422:.\Generated_Source\PSoC4/CyLFClk.c ****     *  For the "INTERRUPT" mode, the recommended sequence is the following:
1423:.\Generated_Source\PSoC4/CyLFClk.c ****     *  - Call the CySysWdtDisableCounterIsr() function to disable servicing
1424:.\Generated_Source\PSoC4/CyLFClk.c ****     *    interrupts of the specified WDT counter.
1425:.\Generated_Source\PSoC4/CyLFClk.c ****     *
1426:.\Generated_Source\PSoC4/CyLFClk.c ****     *  - Call the CySysWdtSetInterruptCallback() function to register the callback
1427:.\Generated_Source\PSoC4/CyLFClk.c ****     *    function for the corresponding WDT counter.
1428:.\Generated_Source\PSoC4/CyLFClk.c ****     *
1429:.\Generated_Source\PSoC4/CyLFClk.c ****     *  - Call the CySysTimerDelay() function.
1430:.\Generated_Source\PSoC4/CyLFClk.c ****     *
1431:.\Generated_Source\PSoC4/CyLFClk.c ****     * Parameters:
1432:.\Generated_Source\PSoC4/CyLFClk.c ****     *  counterNum: Valid range [0-1]. The number of the WDT counter (WDT0 or WDT1).
1433:.\Generated_Source\PSoC4/CyLFClk.c ****     *  delayType : Defines the operation mode.
1434:.\Generated_Source\PSoC4/CyLFClk.c ****     *               CY_SYS_TIMER_WAIT       "WAIT" mode.
1435:.\Generated_Source\PSoC4/CyLFClk.c ****     *               CY_SYS_TIMER_INTERRUPT  "INTERRUPT" mode.
1436:.\Generated_Source\PSoC4/CyLFClk.c ****     *  delay:  The delay value in the LFCLK ticks (allowable range - 16-bit value).
1437:.\Generated_Source\PSoC4/CyLFClk.c ****     *
1438:.\Generated_Source\PSoC4/CyLFClk.c ****     * Return:
1439:.\Generated_Source\PSoC4/CyLFClk.c ****     *  None
1440:.\Generated_Source\PSoC4/CyLFClk.c ****     *
1441:.\Generated_Source\PSoC4/CyLFClk.c ****     * Side effects:
1442:.\Generated_Source\PSoC4/CyLFClk.c ****     *  In the "INTERRUPT" mode, this function enables ISR callback servicing
ARM GAS  C:\Users\Tim\AppData\Local\Temp\cc4ChIIk.s 			page 42


1443:.\Generated_Source\PSoC4/CyLFClk.c ****     *  from the corresponding WDT counter. Servicing of this ISR callback will be
1444:.\Generated_Source\PSoC4/CyLFClk.c ****     *  disabled after the expiration of the delay time.
1445:.\Generated_Source\PSoC4/CyLFClk.c ****     *
1446:.\Generated_Source\PSoC4/CyLFClk.c ****     *******************************************************************************/
1447:.\Generated_Source\PSoC4/CyLFClk.c ****     void CySysTimerDelayUntilMatch(uint32 counterNum, cy_sys_timer_delaytype_enum delayType, uint32
1448:.\Generated_Source\PSoC4/CyLFClk.c ****     {
1449:.\Generated_Source\PSoC4/CyLFClk.c ****         uint32 tmpValue;
1450:.\Generated_Source\PSoC4/CyLFClk.c **** 
1451:.\Generated_Source\PSoC4/CyLFClk.c ****         if((counterNum < CY_SYS_WDT_COUNTER2) && (0uL == CySysWdtGetClearOnMatch(counterNum)) && (m
1452:.\Generated_Source\PSoC4/CyLFClk.c ****         {
1453:.\Generated_Source\PSoC4/CyLFClk.c ****             if(delayType == CY_SYS_TIMER_WAIT)
1454:.\Generated_Source\PSoC4/CyLFClk.c ****             {
1455:.\Generated_Source\PSoC4/CyLFClk.c ****                 do
1456:.\Generated_Source\PSoC4/CyLFClk.c ****                 {
1457:.\Generated_Source\PSoC4/CyLFClk.c ****                     tmpValue = CySysWdtGetCount(counterNum);
1458:.\Generated_Source\PSoC4/CyLFClk.c ****                 }while(tmpValue > match);
1459:.\Generated_Source\PSoC4/CyLFClk.c **** 
1460:.\Generated_Source\PSoC4/CyLFClk.c ****                 do
1461:.\Generated_Source\PSoC4/CyLFClk.c ****                 {
1462:.\Generated_Source\PSoC4/CyLFClk.c ****                     tmpValue = CySysWdtGetCount(counterNum);
1463:.\Generated_Source\PSoC4/CyLFClk.c ****                 }while(tmpValue < match);
1464:.\Generated_Source\PSoC4/CyLFClk.c ****             }
1465:.\Generated_Source\PSoC4/CyLFClk.c ****             else
1466:.\Generated_Source\PSoC4/CyLFClk.c ****             {
1467:.\Generated_Source\PSoC4/CyLFClk.c ****                 tmpValue = counterIntMaskTbl[counterNum];
1468:.\Generated_Source\PSoC4/CyLFClk.c ****                 CySysWdtSetMatch(counterNum, match);
1469:.\Generated_Source\PSoC4/CyLFClk.c **** 
1470:.\Generated_Source\PSoC4/CyLFClk.c ****                 disableServicedIsr  |= tmpValue;
1471:.\Generated_Source\PSoC4/CyLFClk.c ****                 wdtIsrMask |= tmpValue;
1472:.\Generated_Source\PSoC4/CyLFClk.c ****             }
1473:.\Generated_Source\PSoC4/CyLFClk.c ****         }
1474:.\Generated_Source\PSoC4/CyLFClk.c ****         else
1475:.\Generated_Source\PSoC4/CyLFClk.c ****         {
1476:.\Generated_Source\PSoC4/CyLFClk.c ****             CYASSERT(0u != 0u);
1477:.\Generated_Source\PSoC4/CyLFClk.c ****         }
1478:.\Generated_Source\PSoC4/CyLFClk.c ****     }
1479:.\Generated_Source\PSoC4/CyLFClk.c **** 
1480:.\Generated_Source\PSoC4/CyLFClk.c **** 
1481:.\Generated_Source\PSoC4/CyLFClk.c ****     /*******************************************************************************
1482:.\Generated_Source\PSoC4/CyLFClk.c ****     * Function Name: CySysWatchdogFeed
1483:.\Generated_Source\PSoC4/CyLFClk.c ****     ********************************************************************************
1484:.\Generated_Source\PSoC4/CyLFClk.c ****     *
1485:.\Generated_Source\PSoC4/CyLFClk.c ****     * Summary:
1486:.\Generated_Source\PSoC4/CyLFClk.c ****     *  Feeds the watchdog counter before it causes the device reset. Supported only
1487:.\Generated_Source\PSoC4/CyLFClk.c ****     *  for WDT0 and WDT1 in the "Watchdog" or "Watchdog w/ Interrupts" modes.
1488:.\Generated_Source\PSoC4/CyLFClk.c ****     *
1489:.\Generated_Source\PSoC4/CyLFClk.c ****     * Parameters:
1490:.\Generated_Source\PSoC4/CyLFClk.c ****     *  counterNum:    The number of the WDT counter.
1491:.\Generated_Source\PSoC4/CyLFClk.c ****     *
1492:.\Generated_Source\PSoC4/CyLFClk.c ****     * Return:
1493:.\Generated_Source\PSoC4/CyLFClk.c ****     *  None.
1494:.\Generated_Source\PSoC4/CyLFClk.c ****     *
1495:.\Generated_Source\PSoC4/CyLFClk.c ****     * Side effects:
1496:.\Generated_Source\PSoC4/CyLFClk.c ****     *  Clears the WDT counter in the "Watchdog" mode or clears the WDT interrupt in
1497:.\Generated_Source\PSoC4/CyLFClk.c ****     *  "Watchdog w/ Interrupts" mode. Does nothing in other modes.
1498:.\Generated_Source\PSoC4/CyLFClk.c ****     *
1499:.\Generated_Source\PSoC4/CyLFClk.c ****     *******************************************************************************/
ARM GAS  C:\Users\Tim\AppData\Local\Temp\cc4ChIIk.s 			page 43


1500:.\Generated_Source\PSoC4/CyLFClk.c ****     void CySysWatchdogFeed(uint32 counterNum)
1501:.\Generated_Source\PSoC4/CyLFClk.c ****     {
1502:.\Generated_Source\PSoC4/CyLFClk.c ****         if(counterNum == CY_SYS_WDT_COUNTER0)
1503:.\Generated_Source\PSoC4/CyLFClk.c ****         {
1504:.\Generated_Source\PSoC4/CyLFClk.c ****             if(CY_SYS_WDT_MODE_INT_RESET == CySysWdtGetMode(counterNum))
1505:.\Generated_Source\PSoC4/CyLFClk.c ****             {
1506:.\Generated_Source\PSoC4/CyLFClk.c ****                 CySysWdtClearInterrupt(CY_SYS_WDT_COUNTER0_MASK);
1507:.\Generated_Source\PSoC4/CyLFClk.c ****             }
1508:.\Generated_Source\PSoC4/CyLFClk.c ****             else if(CY_SYS_WDT_MODE_RESET == CySysWdtGetMode(counterNum))
1509:.\Generated_Source\PSoC4/CyLFClk.c ****             {
1510:.\Generated_Source\PSoC4/CyLFClk.c ****                 CySysWdtResetCounters(CY_SYS_WDT_COUNTER0_RESET);
1511:.\Generated_Source\PSoC4/CyLFClk.c ****                 CySysWdtClearInterrupt(CY_SYS_WDT_COUNTER0_MASK);
1512:.\Generated_Source\PSoC4/CyLFClk.c ****             }
1513:.\Generated_Source\PSoC4/CyLFClk.c ****             else
1514:.\Generated_Source\PSoC4/CyLFClk.c ****             {
1515:.\Generated_Source\PSoC4/CyLFClk.c ****                 /* Do nothing. */
1516:.\Generated_Source\PSoC4/CyLFClk.c ****             }
1517:.\Generated_Source\PSoC4/CyLFClk.c ****         }
1518:.\Generated_Source\PSoC4/CyLFClk.c ****         else if(counterNum == CY_SYS_WDT_COUNTER1)
1519:.\Generated_Source\PSoC4/CyLFClk.c ****         {
1520:.\Generated_Source\PSoC4/CyLFClk.c ****             if(CY_SYS_WDT_MODE_INT_RESET == CySysWdtGetMode(counterNum))
1521:.\Generated_Source\PSoC4/CyLFClk.c ****             {
1522:.\Generated_Source\PSoC4/CyLFClk.c ****                 CySysWdtClearInterrupt(CY_SYS_WDT_COUNTER1_MASK);
1523:.\Generated_Source\PSoC4/CyLFClk.c ****             }
1524:.\Generated_Source\PSoC4/CyLFClk.c ****             else if(CY_SYS_WDT_MODE_RESET == CySysWdtGetMode(counterNum))
1525:.\Generated_Source\PSoC4/CyLFClk.c ****             {
1526:.\Generated_Source\PSoC4/CyLFClk.c ****                 CySysWdtResetCounters(CY_SYS_WDT_COUNTER1_RESET);
1527:.\Generated_Source\PSoC4/CyLFClk.c ****                 CySysWdtClearInterrupt(CY_SYS_WDT_COUNTER1_MASK);
1528:.\Generated_Source\PSoC4/CyLFClk.c ****             }
1529:.\Generated_Source\PSoC4/CyLFClk.c ****             else
1530:.\Generated_Source\PSoC4/CyLFClk.c ****             {
1531:.\Generated_Source\PSoC4/CyLFClk.c ****                 /* Do nothing. */
1532:.\Generated_Source\PSoC4/CyLFClk.c ****             }
1533:.\Generated_Source\PSoC4/CyLFClk.c ****         }
1534:.\Generated_Source\PSoC4/CyLFClk.c ****         else
1535:.\Generated_Source\PSoC4/CyLFClk.c ****         {
1536:.\Generated_Source\PSoC4/CyLFClk.c ****             /* Do nothing. */
1537:.\Generated_Source\PSoC4/CyLFClk.c ****         }
1538:.\Generated_Source\PSoC4/CyLFClk.c ****     }
1539:.\Generated_Source\PSoC4/CyLFClk.c **** 
1540:.\Generated_Source\PSoC4/CyLFClk.c **** 
1541:.\Generated_Source\PSoC4/CyLFClk.c ****     /*******************************************************************************
1542:.\Generated_Source\PSoC4/CyLFClk.c ****     * Function Name: CySysClkLfclkPosedgeCatch
1543:.\Generated_Source\PSoC4/CyLFClk.c ****     ********************************************************************************
1544:.\Generated_Source\PSoC4/CyLFClk.c ****     *
1545:.\Generated_Source\PSoC4/CyLFClk.c ****     * Summary:
1546:.\Generated_Source\PSoC4/CyLFClk.c ****     *  Returns once the LFCLK positive edge occurred.
1547:.\Generated_Source\PSoC4/CyLFClk.c ****     *
1548:.\Generated_Source\PSoC4/CyLFClk.c ****     *  CySysClkLfclkPosedgeRestore() should be called after this function
1549:.\Generated_Source\PSoC4/CyLFClk.c ****     *  to restore the WDT configuration.
1550:.\Generated_Source\PSoC4/CyLFClk.c ****     *
1551:.\Generated_Source\PSoC4/CyLFClk.c ****     *  A pair of the CySysClkLfclkPosedgeCatch() and CySysClkLfclkPosedgeRestore()
1552:.\Generated_Source\PSoC4/CyLFClk.c ****     *  functions is expected to be called inside a critical section.
1553:.\Generated_Source\PSoC4/CyLFClk.c ****     *
1554:.\Generated_Source\PSoC4/CyLFClk.c ****     *  To ensure that the WDT counter value is read until it changes, the enabled
1555:.\Generated_Source\PSoC4/CyLFClk.c ****     *  WDT counter is used. If no counter is enabled, counter 0 is enabled.
1556:.\Generated_Source\PSoC4/CyLFClk.c ****     *  And after the LFCLK source is switched, the counter 0 configuration
ARM GAS  C:\Users\Tim\AppData\Local\Temp\cc4ChIIk.s 			page 44


1557:.\Generated_Source\PSoC4/CyLFClk.c ****     *  is restored.
1558:.\Generated_Source\PSoC4/CyLFClk.c ****     *
1559:.\Generated_Source\PSoC4/CyLFClk.c ****     *  Not applicable for the PSoC 4000 devices.
1560:.\Generated_Source\PSoC4/CyLFClk.c ****     *
1561:.\Generated_Source\PSoC4/CyLFClk.c ****     * Parameters:
1562:.\Generated_Source\PSoC4/CyLFClk.c ****     *  None.
1563:.\Generated_Source\PSoC4/CyLFClk.c ****     *
1564:.\Generated_Source\PSoC4/CyLFClk.c ****     * Return:
1565:.\Generated_Source\PSoC4/CyLFClk.c ****     *  None.
1566:.\Generated_Source\PSoC4/CyLFClk.c ****     *
1567:.\Generated_Source\PSoC4/CyLFClk.c ****     * Side Effects:
1568:.\Generated_Source\PSoC4/CyLFClk.c ****     *  This function has no effect if WDT is locked (CySysWdtLock() is
1569:.\Generated_Source\PSoC4/CyLFClk.c ****     *  called). Call CySysWdtUnlock() to unlock WDT.
1570:.\Generated_Source\PSoC4/CyLFClk.c ****     *
1571:.\Generated_Source\PSoC4/CyLFClk.c ****     *******************************************************************************/
1572:.\Generated_Source\PSoC4/CyLFClk.c ****     static void CySysClkLfclkPosedgeCatch(void)
1573:.\Generated_Source\PSoC4/CyLFClk.c ****     {
1574:.\Generated_Source\PSoC4/CyLFClk.c ****         uint32 firstCount;
1575:.\Generated_Source\PSoC4/CyLFClk.c ****         static uint32 lfclkPosedgeEnabledWdtCounter = 0u;
1576:.\Generated_Source\PSoC4/CyLFClk.c **** 
1577:.\Generated_Source\PSoC4/CyLFClk.c ****         if (0u != CySysWdtGetEnabledStatus(CY_SYS_WDT_COUNTER0))
1578:.\Generated_Source\PSoC4/CyLFClk.c ****         {
1579:.\Generated_Source\PSoC4/CyLFClk.c ****             lfclkPosedgeEnabledWdtCounter = CY_SYS_WDT_COUNTER0;
1580:.\Generated_Source\PSoC4/CyLFClk.c ****         }
1581:.\Generated_Source\PSoC4/CyLFClk.c ****         else if (0u != CySysWdtGetEnabledStatus(CY_SYS_WDT_COUNTER1))
1582:.\Generated_Source\PSoC4/CyLFClk.c ****         {
1583:.\Generated_Source\PSoC4/CyLFClk.c ****             lfclkPosedgeEnabledWdtCounter = CY_SYS_WDT_COUNTER1;
1584:.\Generated_Source\PSoC4/CyLFClk.c ****         }
1585:.\Generated_Source\PSoC4/CyLFClk.c ****         else if (0u != CySysWdtGetEnabledStatus(CY_SYS_WDT_COUNTER2))
1586:.\Generated_Source\PSoC4/CyLFClk.c ****         {
1587:.\Generated_Source\PSoC4/CyLFClk.c ****             lfclkPosedgeEnabledWdtCounter = CY_SYS_WDT_COUNTER2;
1588:.\Generated_Source\PSoC4/CyLFClk.c ****         }
1589:.\Generated_Source\PSoC4/CyLFClk.c ****         else /* All WDT counters are disabled */
1590:.\Generated_Source\PSoC4/CyLFClk.c ****         {
1591:.\Generated_Source\PSoC4/CyLFClk.c ****             /* Configure WDT counter # 0 */
1592:.\Generated_Source\PSoC4/CyLFClk.c ****             lfclkPosedgeWdtCounter0Enabled = 1u;
1593:.\Generated_Source\PSoC4/CyLFClk.c ****             lfclkPosedgeEnabledWdtCounter = CY_SYS_WDT_COUNTER0;
1594:.\Generated_Source\PSoC4/CyLFClk.c **** 
1595:.\Generated_Source\PSoC4/CyLFClk.c ****             lfclkPosedgeWdtCounter0Mode = CySysWdtGetMode(CY_SYS_WDT_COUNTER0);
1596:.\Generated_Source\PSoC4/CyLFClk.c ****             CySysWdtSetMode(CY_SYS_WDT_COUNTER0, CY_SYS_WDT_MODE_NONE);
1597:.\Generated_Source\PSoC4/CyLFClk.c ****             CySysWdtEnable(CY_SYS_WDT_COUNTER0_MASK);
1598:.\Generated_Source\PSoC4/CyLFClk.c ****         }
1599:.\Generated_Source\PSoC4/CyLFClk.c **** 
1600:.\Generated_Source\PSoC4/CyLFClk.c ****         firstCount = CySysWdtGetCount(lfclkPosedgeEnabledWdtCounter);
1601:.\Generated_Source\PSoC4/CyLFClk.c ****         while (CySysWdtGetCount(lfclkPosedgeEnabledWdtCounter) == firstCount)
1602:.\Generated_Source\PSoC4/CyLFClk.c ****         {
1603:.\Generated_Source\PSoC4/CyLFClk.c ****             /* Wait for counter to increment */
1604:.\Generated_Source\PSoC4/CyLFClk.c ****         }
1605:.\Generated_Source\PSoC4/CyLFClk.c ****     }
1606:.\Generated_Source\PSoC4/CyLFClk.c **** 
1607:.\Generated_Source\PSoC4/CyLFClk.c **** 
1608:.\Generated_Source\PSoC4/CyLFClk.c ****     /*******************************************************************************
1609:.\Generated_Source\PSoC4/CyLFClk.c ****     * Function Name: CySysClkLfclkPosedgeRestore
1610:.\Generated_Source\PSoC4/CyLFClk.c ****     ********************************************************************************
1611:.\Generated_Source\PSoC4/CyLFClk.c ****     *
1612:.\Generated_Source\PSoC4/CyLFClk.c ****     * Summary:
1613:.\Generated_Source\PSoC4/CyLFClk.c ****     *  Restores the WDT configuration after a CySysClkLfclkPosedgeCatch() call.
ARM GAS  C:\Users\Tim\AppData\Local\Temp\cc4ChIIk.s 			page 45


1614:.\Generated_Source\PSoC4/CyLFClk.c ****     *
1615:.\Generated_Source\PSoC4/CyLFClk.c ****     *  A pair of the CySysClkLfclkPosedgeCatch() and CySysClkLfclkPosedgeRestore()
1616:.\Generated_Source\PSoC4/CyLFClk.c ****     *  functions is expected to be called inside a critical section.
1617:.\Generated_Source\PSoC4/CyLFClk.c ****     *
1618:.\Generated_Source\PSoC4/CyLFClk.c ****     *  Not applicable for the PSoC 4000 devices.
1619:.\Generated_Source\PSoC4/CyLFClk.c ****     *
1620:.\Generated_Source\PSoC4/CyLFClk.c ****     * Parameters:
1621:.\Generated_Source\PSoC4/CyLFClk.c ****     *  None.
1622:.\Generated_Source\PSoC4/CyLFClk.c ****     *
1623:.\Generated_Source\PSoC4/CyLFClk.c ****     * Return:
1624:.\Generated_Source\PSoC4/CyLFClk.c ****     *  None.
1625:.\Generated_Source\PSoC4/CyLFClk.c ****     *
1626:.\Generated_Source\PSoC4/CyLFClk.c ****     * Side Effects:
1627:.\Generated_Source\PSoC4/CyLFClk.c ****     *  This function has no effect if WDT is locked (CySysWdtLock() is
1628:.\Generated_Source\PSoC4/CyLFClk.c ****     *  called). Call CySysWdtUnlock() to unlock WDT.
1629:.\Generated_Source\PSoC4/CyLFClk.c ****     *
1630:.\Generated_Source\PSoC4/CyLFClk.c ****     *******************************************************************************/
1631:.\Generated_Source\PSoC4/CyLFClk.c ****     static void CySysClkLfclkPosedgeRestore(void)
1632:.\Generated_Source\PSoC4/CyLFClk.c ****     {
 510              		.loc 1 1632 0
 511              		.cfi_startproc
 512 0000 10B5     		push	{r4, lr}
 513              		.cfi_def_cfa_offset 8
 514              		.cfi_offset 4, -8
 515              		.cfi_offset 14, -4
1633:.\Generated_Source\PSoC4/CyLFClk.c ****         if (lfclkPosedgeWdtCounter0Enabled != 0u)
 516              		.loc 1 1633 0
 517 0002 084B     		ldr	r3, .L48
 518 0004 1B68     		ldr	r3, [r3]
 519 0006 002B     		cmp	r3, #0
 520 0008 0BD0     		beq	.L46
1634:.\Generated_Source\PSoC4/CyLFClk.c ****         {
1635:.\Generated_Source\PSoC4/CyLFClk.c ****             /* Restore counter # 0 configuration and force its shutdown */
1636:.\Generated_Source\PSoC4/CyLFClk.c ****             CY_SYS_WDT_CONTROL_REG &= (uint32)(~CY_SYS_WDT_COUNTER0_MASK);
 521              		.loc 1 1636 0
 522 000a 074A     		ldr	r2, .L48+4
 523 000c 1368     		ldr	r3, [r2]
 524 000e 0121     		mov	r1, #1
 525 0010 8B43     		bic	r3, r1
 526 0012 1360     		str	r3, [r2]
1637:.\Generated_Source\PSoC4/CyLFClk.c ****             CySysWdtSetMode(CY_SYS_WDT_COUNTER0, lfclkPosedgeWdtCounter0Mode);
 527              		.loc 1 1637 0
 528 0014 034C     		ldr	r4, .L48
 529 0016 0020     		mov	r0, #0
 530 0018 6168     		ldr	r1, [r4, #4]
 531 001a FFF7FEFF 		bl	CySysWdtSetMode
 532              	.LVL28:
1638:.\Generated_Source\PSoC4/CyLFClk.c ****             lfclkPosedgeWdtCounter0Enabled = 0u;
 533              		.loc 1 1638 0
 534 001e 0023     		mov	r3, #0
 535 0020 2360     		str	r3, [r4]
 536              	.L46:
1639:.\Generated_Source\PSoC4/CyLFClk.c ****         }
1640:.\Generated_Source\PSoC4/CyLFClk.c ****     }
 537              		.loc 1 1640 0
 538              		@ sp needed
 539 0022 10BD     		pop	{r4, pc}
ARM GAS  C:\Users\Tim\AppData\Local\Temp\cc4ChIIk.s 			page 46


 540              	.L49:
 541              		.align	2
 542              	.L48:
 543 0024 00000000 		.word	.LANCHOR0
 544 0028 10020B40 		.word	1074463248
 545              		.cfi_endproc
 546              	.LFE39:
 547              		.size	CySysClkLfclkPosedgeRestore, .-CySysClkLfclkPosedgeRestore
 548              		.section	.text.CySysWdtGetMode,"ax",%progbits
 549              		.align	2
 550              		.global	CySysWdtGetMode
 551              		.code	16
 552              		.thumb_func
 553              		.type	CySysWdtGetMode, %function
 554              	CySysWdtGetMode:
 555              	.LFB15:
 561:.\Generated_Source\PSoC4/CyLFClk.c ****         return ((CY_SYS_WDT_CONFIG_REG >> (counterNum * CY_SYS_WDT_CNT_SHIFT)) & CY_SYS_WDT_MODE_MA
 556              		.loc 1 561 0
 557              		.cfi_startproc
 558              	.LVL29:
 562:.\Generated_Source\PSoC4/CyLFClk.c ****     }
 559              		.loc 1 562 0
 560 0000 034B     		ldr	r3, .L51
 561 0002 1B68     		ldr	r3, [r3]
 562 0004 C000     		lsl	r0, r0, #3
 563              	.LVL30:
 564 0006 C340     		lsr	r3, r3, r0
 565 0008 181C     		mov	r0, r3
 566 000a 0323     		mov	r3, #3
 567 000c 1840     		and	r0, r3
 563:.\Generated_Source\PSoC4/CyLFClk.c **** 
 568              		.loc 1 563 0
 569              		@ sp needed
 570 000e 7047     		bx	lr
 571              	.L52:
 572              		.align	2
 573              	.L51:
 574 0010 0C020B40 		.word	1074463244
 575              		.cfi_endproc
 576              	.LFE15:
 577              		.size	CySysWdtGetMode, .-CySysWdtGetMode
 578              		.section	.text.CySysWdtSetClearOnMatch,"ax",%progbits
 579              		.align	2
 580              		.global	CySysWdtSetClearOnMatch
 581              		.code	16
 582              		.thumb_func
 583              		.type	CySysWdtSetClearOnMatch, %function
 584              	CySysWdtSetClearOnMatch:
 585              	.LFB16:
 594:.\Generated_Source\PSoC4/CyLFClk.c ****         uint32 configRegValue;
 586              		.loc 1 594 0
 587              		.cfi_startproc
 588              	.LVL31:
 589 0000 38B5     		push	{r3, r4, r5, lr}
 590              		.cfi_def_cfa_offset 16
 591              		.cfi_offset 3, -16
 592              		.cfi_offset 4, -12
ARM GAS  C:\Users\Tim\AppData\Local\Temp\cc4ChIIk.s 			page 47


 593              		.cfi_offset 5, -8
 594              		.cfi_offset 14, -4
 595 0002 041C     		mov	r4, r0
 596 0004 0D1C     		mov	r5, r1
 597:.\Generated_Source\PSoC4/CyLFClk.c ****                  (counterNum == CY_SYS_WDT_COUNTER1));
 597              		.loc 1 597 0
 598 0006 0128     		cmp	r0, #1
 599 0008 02D9     		bls	.L54
 597:.\Generated_Source\PSoC4/CyLFClk.c ****                  (counterNum == CY_SYS_WDT_COUNTER1));
 600              		.loc 1 597 0 is_stmt 0 discriminator 1
 601 000a 0020     		mov	r0, #0
 602              	.LVL32:
 603 000c FFF7FEFF 		bl	CyHalt
 604              	.LVL33:
 605              	.L54:
 600:.\Generated_Source\PSoC4/CyLFClk.c ****         {
 606              		.loc 1 600 0 is_stmt 1
 607 0010 201C     		mov	r0, r4
 608 0012 FFF7FEFF 		bl	CySysWdtGetEnabledStatus
 609              	.LVL34:
 610 0016 0028     		cmp	r0, #0
 611 0018 0AD1     		bne	.L53
 602:.\Generated_Source\PSoC4/CyLFClk.c ****                 (uint32)~((uint32)((uint32)1u << ((counterNum * CY_SYS_WDT_CNT_SHIFT) + CY_SYS_WDT_
 612              		.loc 1 602 0
 613 001a 0649     		ldr	r1, .L56
 614 001c 0B68     		ldr	r3, [r1]
 603:.\Generated_Source\PSoC4/CyLFClk.c **** 
 615              		.loc 1 603 0
 616 001e E400     		lsl	r4, r4, #3
 617              	.LVL35:
 618 0020 0234     		add	r4, r4, #2
 619 0022 0122     		mov	r2, #1
 620 0024 A240     		lsl	r2, r2, r4
 602:.\Generated_Source\PSoC4/CyLFClk.c ****                 (uint32)~((uint32)((uint32)1u << ((counterNum * CY_SYS_WDT_CNT_SHIFT) + CY_SYS_WDT_
 621              		.loc 1 602 0
 622 0026 9343     		bic	r3, r2
 623              	.LVL36:
 606:.\Generated_Source\PSoC4/CyLFClk.c **** 
 624              		.loc 1 606 0
 625 0028 A540     		lsl	r5, r5, r4
 626              	.LVL37:
 627 002a 2C1C     		mov	r4, r5
 628 002c 1C43     		orr	r4, r3
 629              	.LVL38:
 608:.\Generated_Source\PSoC4/CyLFClk.c ****         }
 630              		.loc 1 608 0
 631 002e 0C60     		str	r4, [r1]
 632              	.LVL39:
 633              	.L53:
 610:.\Generated_Source\PSoC4/CyLFClk.c **** 
 634              		.loc 1 610 0
 635              		@ sp needed
 636 0030 38BD     		pop	{r3, r4, r5, pc}
 637              	.L57:
 638 0032 C046     		.align	2
 639              	.L56:
 640 0034 0C020B40 		.word	1074463244
ARM GAS  C:\Users\Tim\AppData\Local\Temp\cc4ChIIk.s 			page 48


 641              		.cfi_endproc
 642              	.LFE16:
 643              		.size	CySysWdtSetClearOnMatch, .-CySysWdtSetClearOnMatch
 644              		.section	.text.CySysWdtGetClearOnMatch,"ax",%progbits
 645              		.align	2
 646              		.global	CySysWdtGetClearOnMatch
 647              		.code	16
 648              		.thumb_func
 649              		.type	CySysWdtGetClearOnMatch, %function
 650              	CySysWdtGetClearOnMatch:
 651              	.LFB17:
 629:.\Generated_Source\PSoC4/CyLFClk.c ****         CYASSERT((counterNum == CY_SYS_WDT_COUNTER0) ||
 652              		.loc 1 629 0
 653              		.cfi_startproc
 654              	.LVL40:
 655 0000 10B5     		push	{r4, lr}
 656              		.cfi_def_cfa_offset 8
 657              		.cfi_offset 4, -8
 658              		.cfi_offset 14, -4
 659 0002 041E     		sub	r4, r0, #0
 630:.\Generated_Source\PSoC4/CyLFClk.c ****                  (counterNum == CY_SYS_WDT_COUNTER1));
 660              		.loc 1 630 0
 661 0004 012C     		cmp	r4, #1
 662 0006 02D9     		bls	.L59
 630:.\Generated_Source\PSoC4/CyLFClk.c ****                  (counterNum == CY_SYS_WDT_COUNTER1));
 663              		.loc 1 630 0 is_stmt 0 discriminator 1
 664 0008 0020     		mov	r0, #0
 665              	.LVL41:
 666 000a FFF7FEFF 		bl	CyHalt
 667              	.LVL42:
 668              	.L59:
 633:.\Generated_Source\PSoC4/CyLFClk.c ****                         ((counterNum * CY_SYS_WDT_CNT_SHIFT) + CY_SYS_WDT_CNT_MATCH_CLR_SHIFT)) & 0
 669              		.loc 1 633 0 is_stmt 1
 670 000e 044B     		ldr	r3, .L60
 671 0010 1868     		ldr	r0, [r3]
 634:.\Generated_Source\PSoC4/CyLFClk.c ****     }
 672              		.loc 1 634 0
 673 0012 E400     		lsl	r4, r4, #3
 674              	.LVL43:
 675 0014 0234     		add	r4, r4, #2
 633:.\Generated_Source\PSoC4/CyLFClk.c ****                         ((counterNum * CY_SYS_WDT_CNT_SHIFT) + CY_SYS_WDT_CNT_MATCH_CLR_SHIFT)) & 0
 676              		.loc 1 633 0
 677 0016 E040     		lsr	r0, r0, r4
 678 0018 041C     		mov	r4, r0
 679 001a 0120     		mov	r0, #1
 680 001c 2040     		and	r0, r4
 635:.\Generated_Source\PSoC4/CyLFClk.c **** 
 681              		.loc 1 635 0
 682              		@ sp needed
 683 001e 10BD     		pop	{r4, pc}
 684              	.L61:
 685              		.align	2
 686              	.L60:
 687 0020 0C020B40 		.word	1074463244
 688              		.cfi_endproc
 689              	.LFE17:
 690              		.size	CySysWdtGetClearOnMatch, .-CySysWdtGetClearOnMatch
ARM GAS  C:\Users\Tim\AppData\Local\Temp\cc4ChIIk.s 			page 49


 691              		.section	.text.CySysWdtEnable,"ax",%progbits
 692              		.align	2
 693              		.global	CySysWdtEnable
 694              		.code	16
 695              		.thumb_func
 696              		.type	CySysWdtEnable, %function
 697              	CySysWdtEnable:
 698              	.LFB18:
 675:.\Generated_Source\PSoC4/CyLFClk.c ****         #if (!CY_IP_WCO)
 699              		.loc 1 675 0
 700              		.cfi_startproc
 701              	.LVL44:
 702 0000 10B5     		push	{r4, lr}
 703              		.cfi_def_cfa_offset 8
 704              		.cfi_offset 4, -8
 705              		.cfi_offset 14, -4
 706 0002 041C     		mov	r4, r0
 680:.\Generated_Source\PSoC4/CyLFClk.c **** 
 707              		.loc 1 680 0
 708 0004 0C4A     		ldr	r2, .L69
 709 0006 1368     		ldr	r3, [r2]
 710 0008 0343     		orr	r3, r0
 711 000a 1360     		str	r3, [r2]
 682:.\Generated_Source\PSoC4/CyLFClk.c ****         {
 712              		.loc 1 682 0
 713 000c C307     		lsl	r3, r0, #31
 714 000e 04D5     		bpl	.L63
 715              	.LVL45:
 716              	.L64:
 684:.\Generated_Source\PSoC4/CyLFClk.c ****             {
 717              		.loc 1 684 0 discriminator 1
 718 0010 0020     		mov	r0, #0
 719 0012 FFF7FEFF 		bl	CySysWdtGetEnabledStatus
 720              	.LVL46:
 721 0016 0028     		cmp	r0, #0
 722 0018 FAD0     		beq	.L64
 723              	.L63:
 690:.\Generated_Source\PSoC4/CyLFClk.c ****         {
 724              		.loc 1 690 0
 725 001a E305     		lsl	r3, r4, #23
 726 001c 04D5     		bpl	.L65
 727              	.L66:
 692:.\Generated_Source\PSoC4/CyLFClk.c ****             {
 728              		.loc 1 692 0 discriminator 1
 729 001e 0120     		mov	r0, #1
 730 0020 FFF7FEFF 		bl	CySysWdtGetEnabledStatus
 731              	.LVL47:
 732 0024 0028     		cmp	r0, #0
 733 0026 FAD0     		beq	.L66
 734              	.L65:
 698:.\Generated_Source\PSoC4/CyLFClk.c ****         {
 735              		.loc 1 698 0
 736 0028 E303     		lsl	r3, r4, #15
 737 002a 04D5     		bpl	.L62
 738              	.L68:
 700:.\Generated_Source\PSoC4/CyLFClk.c ****             {
 739              		.loc 1 700 0 discriminator 1
ARM GAS  C:\Users\Tim\AppData\Local\Temp\cc4ChIIk.s 			page 50


 740 002c 0220     		mov	r0, #2
 741 002e FFF7FEFF 		bl	CySysWdtGetEnabledStatus
 742              	.LVL48:
 743 0032 0028     		cmp	r0, #0
 744 0034 FAD0     		beq	.L68
 745              	.L62:
 705:.\Generated_Source\PSoC4/CyLFClk.c **** 
 746              		.loc 1 705 0
 747              		@ sp needed
 748              	.LVL49:
 749 0036 10BD     		pop	{r4, pc}
 750              	.L70:
 751              		.align	2
 752              	.L69:
 753 0038 10020B40 		.word	1074463248
 754              		.cfi_endproc
 755              	.LFE18:
 756              		.size	CySysWdtEnable, .-CySysWdtEnable
 757              		.section	.text.CySysWdtDisable,"ax",%progbits
 758              		.align	2
 759              		.global	CySysWdtDisable
 760              		.code	16
 761              		.thumb_func
 762              		.type	CySysWdtDisable, %function
 763              	CySysWdtDisable:
 764              	.LFB19:
 728:.\Generated_Source\PSoC4/CyLFClk.c ****         if (0uL == CySysWdtLocked())
 765              		.loc 1 728 0
 766              		.cfi_startproc
 767              	.LVL50:
 768 0000 10B5     		push	{r4, lr}
 769              		.cfi_def_cfa_offset 8
 770              		.cfi_offset 4, -8
 771              		.cfi_offset 14, -4
 772 0002 041C     		mov	r4, r0
 729:.\Generated_Source\PSoC4/CyLFClk.c ****         {
 773              		.loc 1 729 0
 774 0004 FFF7FEFF 		bl	CySysWdtLocked
 775              	.LVL51:
 776 0008 0028     		cmp	r0, #0
 777 000a 18D1     		bne	.L71
 731:.\Generated_Source\PSoC4/CyLFClk.c **** 
 778              		.loc 1 731 0
 779 000c 0C4A     		ldr	r2, .L78
 780 000e 1368     		ldr	r3, [r2]
 781 0010 A343     		bic	r3, r4
 782 0012 1360     		str	r3, [r2]
 733:.\Generated_Source\PSoC4/CyLFClk.c ****             {
 783              		.loc 1 733 0
 784 0014 E307     		lsl	r3, r4, #31
 785 0016 04D5     		bpl	.L73
 786              	.L74:
 735:.\Generated_Source\PSoC4/CyLFClk.c ****                 {
 787              		.loc 1 735 0 discriminator 1
 788 0018 0020     		mov	r0, #0
 789 001a FFF7FEFF 		bl	CySysWdtGetEnabledStatus
 790              	.LVL52:
ARM GAS  C:\Users\Tim\AppData\Local\Temp\cc4ChIIk.s 			page 51


 791 001e 0028     		cmp	r0, #0
 792 0020 FAD1     		bne	.L74
 793              	.L73:
 741:.\Generated_Source\PSoC4/CyLFClk.c ****             {
 794              		.loc 1 741 0
 795 0022 E305     		lsl	r3, r4, #23
 796 0024 04D5     		bpl	.L75
 797              	.L76:
 743:.\Generated_Source\PSoC4/CyLFClk.c ****                 {
 798              		.loc 1 743 0 discriminator 1
 799 0026 0120     		mov	r0, #1
 800 0028 FFF7FEFF 		bl	CySysWdtGetEnabledStatus
 801              	.LVL53:
 802 002c 0028     		cmp	r0, #0
 803 002e FAD1     		bne	.L76
 804              	.L75:
 749:.\Generated_Source\PSoC4/CyLFClk.c ****             {
 805              		.loc 1 749 0
 806 0030 E303     		lsl	r3, r4, #15
 807 0032 04D5     		bpl	.L71
 808              	.L77:
 751:.\Generated_Source\PSoC4/CyLFClk.c ****                 {
 809              		.loc 1 751 0 discriminator 1
 810 0034 0220     		mov	r0, #2
 811 0036 FFF7FEFF 		bl	CySysWdtGetEnabledStatus
 812              	.LVL54:
 813 003a 0028     		cmp	r0, #0
 814 003c FAD1     		bne	.L77
 815              	.L71:
 757:.\Generated_Source\PSoC4/CyLFClk.c **** 
 816              		.loc 1 757 0
 817              		@ sp needed
 818              	.LVL55:
 819 003e 10BD     		pop	{r4, pc}
 820              	.L79:
 821              		.align	2
 822              	.L78:
 823 0040 10020B40 		.word	1074463248
 824              		.cfi_endproc
 825              	.LFE19:
 826              		.size	CySysWdtDisable, .-CySysWdtDisable
 827              		.section	.text.CySysWdtSetCascade,"ax",%progbits
 828              		.align	2
 829              		.global	CySysWdtSetCascade
 830              		.code	16
 831              		.thumb_func
 832              		.type	CySysWdtSetCascade, %function
 833              	CySysWdtSetCascade:
 834              	.LFB20:
 794:.\Generated_Source\PSoC4/CyLFClk.c ****         uint32 configRegValue;
 835              		.loc 1 794 0
 836              		.cfi_startproc
 837              	.LVL56:
 838 0000 38B5     		push	{r3, r4, r5, lr}
 839              		.cfi_def_cfa_offset 16
 840              		.cfi_offset 3, -16
 841              		.cfi_offset 4, -12
ARM GAS  C:\Users\Tim\AppData\Local\Temp\cc4ChIIk.s 			page 52


 842              		.cfi_offset 5, -8
 843              		.cfi_offset 14, -4
 844 0002 051C     		mov	r5, r0
 798:.\Generated_Source\PSoC4/CyLFClk.c ****                             CySysWdtGetEnabledStatus(CY_SYS_WDT_COUNTER1) |
 845              		.loc 1 798 0
 846 0004 0020     		mov	r0, #0
 847              	.LVL57:
 848 0006 FFF7FEFF 		bl	CySysWdtGetEnabledStatus
 849              	.LVL58:
 850 000a 041C     		mov	r4, r0
 799:.\Generated_Source\PSoC4/CyLFClk.c ****                             CySysWdtGetEnabledStatus(CY_SYS_WDT_COUNTER2);
 851              		.loc 1 799 0
 852 000c 0120     		mov	r0, #1
 853 000e FFF7FEFF 		bl	CySysWdtGetEnabledStatus
 854              	.LVL59:
 798:.\Generated_Source\PSoC4/CyLFClk.c ****                             CySysWdtGetEnabledStatus(CY_SYS_WDT_COUNTER1) |
 855              		.loc 1 798 0
 856 0012 0443     		orr	r4, r0
 800:.\Generated_Source\PSoC4/CyLFClk.c **** 
 857              		.loc 1 800 0
 858 0014 0220     		mov	r0, #2
 859 0016 FFF7FEFF 		bl	CySysWdtGetEnabledStatus
 860              	.LVL60:
 798:.\Generated_Source\PSoC4/CyLFClk.c ****                             CySysWdtGetEnabledStatus(CY_SYS_WDT_COUNTER1) |
 861              		.loc 1 798 0
 862 001a 2043     		orr	r0, r4
 863              	.LVL61:
 802:.\Generated_Source\PSoC4/CyLFClk.c ****         {
 864              		.loc 1 802 0
 865 001c 05D1     		bne	.L80
 804:.\Generated_Source\PSoC4/CyLFClk.c ****             configRegValue &= ((uint32)(~(CY_SYS_WDT_CASCADE_01|CY_SYS_WDT_CASCADE_12)));
 866              		.loc 1 804 0
 867 001e 034A     		ldr	r2, .L82
 868 0020 1168     		ldr	r1, [r2]
 869              	.LVL62:
 805:.\Generated_Source\PSoC4/CyLFClk.c ****             configRegValue |= cascadeMask;
 870              		.loc 1 805 0
 871 0022 034B     		ldr	r3, .L82+4
 872 0024 0B40     		and	r3, r1
 873              	.LVL63:
 806:.\Generated_Source\PSoC4/CyLFClk.c ****             CY_SYS_WDT_CONFIG_REG = configRegValue;
 874              		.loc 1 806 0
 875 0026 1D43     		orr	r5, r3
 876              	.LVL64:
 807:.\Generated_Source\PSoC4/CyLFClk.c ****         }
 877              		.loc 1 807 0
 878 0028 1560     		str	r5, [r2]
 879              	.LVL65:
 880              	.L80:
 809:.\Generated_Source\PSoC4/CyLFClk.c **** 
 881              		.loc 1 809 0
 882              		@ sp needed
 883 002a 38BD     		pop	{r3, r4, r5, pc}
 884              	.L83:
 885              		.align	2
 886              	.L82:
 887 002c 0C020B40 		.word	1074463244
ARM GAS  C:\Users\Tim\AppData\Local\Temp\cc4ChIIk.s 			page 53


 888 0030 F7F7FFFF 		.word	-2057
 889              		.cfi_endproc
 890              	.LFE20:
 891              		.size	CySysWdtSetCascade, .-CySysWdtSetCascade
 892              		.section	.text.CySysWdtGetCascade,"ax",%progbits
 893              		.align	2
 894              		.global	CySysWdtGetCascade
 895              		.code	16
 896              		.thumb_func
 897              		.type	CySysWdtGetCascade, %function
 898              	CySysWdtGetCascade:
 899              	.LFB21:
 831:.\Generated_Source\PSoC4/CyLFClk.c ****         return (CY_SYS_WDT_CONFIG_REG & (CY_SYS_WDT_CASCADE_01 | CY_SYS_WDT_CASCADE_12));
 900              		.loc 1 831 0
 901              		.cfi_startproc
 832:.\Generated_Source\PSoC4/CyLFClk.c ****     }
 902              		.loc 1 832 0
 903 0000 024B     		ldr	r3, .L85
 904 0002 1868     		ldr	r0, [r3]
 905 0004 024B     		ldr	r3, .L85+4
 906 0006 1840     		and	r0, r3
 833:.\Generated_Source\PSoC4/CyLFClk.c **** 
 907              		.loc 1 833 0
 908              		@ sp needed
 909 0008 7047     		bx	lr
 910              	.L86:
 911 000a C046     		.align	2
 912              	.L85:
 913 000c 0C020B40 		.word	1074463244
 914 0010 08080000 		.word	2056
 915              		.cfi_endproc
 916              	.LFE21:
 917              		.size	CySysWdtGetCascade, .-CySysWdtGetCascade
 918              		.section	.text.CySysWdtSetMatch,"ax",%progbits
 919              		.align	2
 920              		.global	CySysWdtSetMatch
 921              		.code	16
 922              		.thumb_func
 923              		.type	CySysWdtSetMatch, %function
 924              	CySysWdtSetMatch:
 925              	.LFB22:
 856:.\Generated_Source\PSoC4/CyLFClk.c ****         uint32 regValue;
 926              		.loc 1 856 0
 927              		.cfi_startproc
 928              	.LVL66:
 929 0000 38B5     		push	{r3, r4, r5, lr}
 930              		.cfi_def_cfa_offset 16
 931              		.cfi_offset 3, -16
 932              		.cfi_offset 4, -12
 933              		.cfi_offset 5, -8
 934              		.cfi_offset 14, -4
 935 0002 041C     		mov	r4, r0
 936 0004 0D1C     		mov	r5, r1
 859:.\Generated_Source\PSoC4/CyLFClk.c ****                  (counterNum == CY_SYS_WDT_COUNTER1));
 937              		.loc 1 859 0
 938 0006 0128     		cmp	r0, #1
 939 0008 02D9     		bls	.L88
ARM GAS  C:\Users\Tim\AppData\Local\Temp\cc4ChIIk.s 			page 54


 859:.\Generated_Source\PSoC4/CyLFClk.c ****                  (counterNum == CY_SYS_WDT_COUNTER1));
 940              		.loc 1 859 0 is_stmt 0 discriminator 1
 941 000a 0020     		mov	r0, #0
 942              	.LVL67:
 943 000c FFF7FEFF 		bl	CyHalt
 944              	.LVL68:
 945              	.L88:
 863:.\Generated_Source\PSoC4/CyLFClk.c **** 
 946              		.loc 1 863 0 is_stmt 1
 947 0010 0E4B     		ldr	r3, .L93
 948 0012 1B68     		ldr	r3, [r3]
 949 0014 9B0F     		lsr	r3, r3, #30
 950 0016 01D1     		bne	.L91
 951 0018 C920     		mov	r0, #201
 952 001a 00E0     		b	.L89
 953              	.L91:
 954 001c 5D20     		mov	r0, #93
 955              	.L89:
 863:.\Generated_Source\PSoC4/CyLFClk.c **** 
 956              		.loc 1 863 0 is_stmt 0 discriminator 4
 957 001e FFF7FEFF 		bl	CyDelayUs
 958              	.LVL69:
 865:.\Generated_Source\PSoC4/CyLFClk.c ****         regValue &= (uint32)~((uint32)(CY_SYS_WDT_LOWER_16BITS_MASK << (counterNum * CY_SYS_WDT_CNT
 959              		.loc 1 865 0 is_stmt 1 discriminator 4
 960 0022 0B4A     		ldr	r2, .L93+4
 961 0024 1068     		ldr	r0, [r2]
 962              	.LVL70:
 866:.\Generated_Source\PSoC4/CyLFClk.c ****         CY_SYS_WDT_MATCH_REG = (regValue | (match << (counterNum * CY_SYS_WDT_CNT_MATCH_SHIFT)));
 963              		.loc 1 866 0 discriminator 4
 964 0026 2401     		lsl	r4, r4, #4
 965              	.LVL71:
 966 0028 0A4B     		ldr	r3, .L93+8
 967 002a A340     		lsl	r3, r3, r4
 968 002c 9843     		bic	r0, r3
 969              	.LVL72:
 970 002e 031C     		mov	r3, r0
 971              	.LVL73:
 867:.\Generated_Source\PSoC4/CyLFClk.c **** 
 972              		.loc 1 867 0 discriminator 4
 973 0030 281C     		mov	r0, r5
 974              	.LVL74:
 975 0032 A040     		lsl	r0, r0, r4
 976 0034 1843     		orr	r0, r3
 977 0036 1060     		str	r0, [r2]
 870:.\Generated_Source\PSoC4/CyLFClk.c ****     }
 978              		.loc 1 870 0 discriminator 4
 979 0038 044B     		ldr	r3, .L93
 980              	.LVL75:
 981 003a 1B68     		ldr	r3, [r3]
 982 003c 9B0F     		lsr	r3, r3, #30
 983 003e 01D1     		bne	.L92
 870:.\Generated_Source\PSoC4/CyLFClk.c ****     }
 984              		.loc 1 870 0 is_stmt 0
 985 0040 4320     		mov	r0, #67
 986 0042 00E0     		b	.L90
 987              	.L92:
 988 0044 1F20     		mov	r0, #31
ARM GAS  C:\Users\Tim\AppData\Local\Temp\cc4ChIIk.s 			page 55


 989              	.L90:
 870:.\Generated_Source\PSoC4/CyLFClk.c ****     }
 990              		.loc 1 870 0 discriminator 4
 991 0046 FFF7FEFF 		bl	CyDelayUs
 992              	.LVL76:
 871:.\Generated_Source\PSoC4/CyLFClk.c **** 
 993              		.loc 1 871 0 is_stmt 1 discriminator 4
 994              		@ sp needed
 995              	.LVL77:
 996 004a 38BD     		pop	{r3, r4, r5, pc}
 997              	.L94:
 998              		.align	2
 999              	.L93:
 1000 004c 0C020B40 		.word	1074463244
 1001 0050 08020B40 		.word	1074463240
 1002 0054 FFFF0000 		.word	65535
 1003              		.cfi_endproc
 1004              	.LFE22:
 1005              		.size	CySysWdtSetMatch, .-CySysWdtSetMatch
 1006              		.section	.text.CySysWdtSetToggleBit,"ax",%progbits
 1007              		.align	2
 1008              		.global	CySysWdtSetToggleBit
 1009              		.code	16
 1010              		.thumb_func
 1011              		.type	CySysWdtSetToggleBit, %function
 1012              	CySysWdtSetToggleBit:
 1013              	.LFB23:
 900:.\Generated_Source\PSoC4/CyLFClk.c ****         uint32 configRegValue;
 1014              		.loc 1 900 0
 1015              		.cfi_startproc
 1016              	.LVL78:
 1017 0000 10B5     		push	{r4, lr}
 1018              		.cfi_def_cfa_offset 8
 1019              		.cfi_offset 4, -8
 1020              		.cfi_offset 14, -4
 1021 0002 041C     		mov	r4, r0
 903:.\Generated_Source\PSoC4/CyLFClk.c ****         {
 1022              		.loc 1 903 0
 1023 0004 0220     		mov	r0, #2
 1024              	.LVL79:
 1025 0006 FFF7FEFF 		bl	CySysWdtGetEnabledStatus
 1026              	.LVL80:
 1027 000a 0028     		cmp	r0, #0
 1028 000c 08D1     		bne	.L95
 905:.\Generated_Source\PSoC4/CyLFClk.c ****             configRegValue &= (uint32)(~((uint32)(CY_SYS_WDT_CONFIG_BITS2_MASK << CY_SYS_WDT_CONFIG
 1029              		.loc 1 905 0
 1030 000e 054A     		ldr	r2, .L97
 1031 0010 1168     		ldr	r1, [r2]
 1032              	.LVL81:
 906:.\Generated_Source\PSoC4/CyLFClk.c ****             configRegValue |= ((bits & CY_SYS_WDT_CONFIG_BITS2_MASK) << CY_SYS_WDT_CONFIG_BITS2_POS
 1033              		.loc 1 906 0
 1034 0012 054B     		ldr	r3, .L97+4
 1035 0014 0B40     		and	r3, r1
 1036              	.LVL82:
 907:.\Generated_Source\PSoC4/CyLFClk.c ****             CY_SYS_WDT_CONFIG_REG = configRegValue;
 1037              		.loc 1 907 0
 1038 0016 1F21     		mov	r1, #31
ARM GAS  C:\Users\Tim\AppData\Local\Temp\cc4ChIIk.s 			page 56


 1039 0018 0C40     		and	r4, r1
 1040              	.LVL83:
 1041 001a 2406     		lsl	r4, r4, #24
 1042 001c 1C43     		orr	r4, r3
 1043              	.LVL84:
 908:.\Generated_Source\PSoC4/CyLFClk.c ****         }
 1044              		.loc 1 908 0
 1045 001e 1460     		str	r4, [r2]
 1046              	.LVL85:
 1047              	.L95:
 910:.\Generated_Source\PSoC4/CyLFClk.c **** 
 1048              		.loc 1 910 0
 1049              		@ sp needed
 1050 0020 10BD     		pop	{r4, pc}
 1051              	.L98:
 1052 0022 C046     		.align	2
 1053              	.L97:
 1054 0024 0C020B40 		.word	1074463244
 1055 0028 FFFFFFE0 		.word	-520093697
 1056              		.cfi_endproc
 1057              	.LFE23:
 1058              		.size	CySysWdtSetToggleBit, .-CySysWdtSetToggleBit
 1059              		.section	.text.CySysWdtGetToggleBit,"ax",%progbits
 1060              		.align	2
 1061              		.global	CySysWdtGetToggleBit
 1062              		.code	16
 1063              		.thumb_func
 1064              		.type	CySysWdtGetToggleBit, %function
 1065              	CySysWdtGetToggleBit:
 1066              	.LFB24:
 928:.\Generated_Source\PSoC4/CyLFClk.c ****         return ((CY_SYS_WDT_CONFIG_REG >> CY_SYS_WDT_CONFIG_BITS2_POS) & CY_SYS_WDT_CONFIG_BITS2_MA
 1067              		.loc 1 928 0
 1068              		.cfi_startproc
 929:.\Generated_Source\PSoC4/CyLFClk.c ****     }
 1069              		.loc 1 929 0
 1070 0000 024B     		ldr	r3, .L100
 1071 0002 1868     		ldr	r0, [r3]
 1072 0004 C000     		lsl	r0, r0, #3
 1073 0006 C00E     		lsr	r0, r0, #27
 930:.\Generated_Source\PSoC4/CyLFClk.c **** 
 1074              		.loc 1 930 0
 1075              		@ sp needed
 1076 0008 7047     		bx	lr
 1077              	.L101:
 1078 000a C046     		.align	2
 1079              	.L100:
 1080 000c 0C020B40 		.word	1074463244
 1081              		.cfi_endproc
 1082              	.LFE24:
 1083              		.size	CySysWdtGetToggleBit, .-CySysWdtGetToggleBit
 1084              		.section	.text.CySysWdtGetMatch,"ax",%progbits
 1085              		.align	2
 1086              		.global	CySysWdtGetMatch
 1087              		.code	16
 1088              		.thumb_func
 1089              		.type	CySysWdtGetMatch, %function
 1090              	CySysWdtGetMatch:
ARM GAS  C:\Users\Tim\AppData\Local\Temp\cc4ChIIk.s 			page 57


 1091              	.LFB25:
 949:.\Generated_Source\PSoC4/CyLFClk.c ****         CYASSERT((counterNum == CY_SYS_WDT_COUNTER0) ||
 1092              		.loc 1 949 0
 1093              		.cfi_startproc
 1094              	.LVL86:
 1095 0000 10B5     		push	{r4, lr}
 1096              		.cfi_def_cfa_offset 8
 1097              		.cfi_offset 4, -8
 1098              		.cfi_offset 14, -4
 1099 0002 041E     		sub	r4, r0, #0
 950:.\Generated_Source\PSoC4/CyLFClk.c ****                  (counterNum == CY_SYS_WDT_COUNTER1));
 1100              		.loc 1 950 0
 1101 0004 012C     		cmp	r4, #1
 1102 0006 02D9     		bls	.L103
 950:.\Generated_Source\PSoC4/CyLFClk.c ****                  (counterNum == CY_SYS_WDT_COUNTER1));
 1103              		.loc 1 950 0 is_stmt 0 discriminator 1
 1104 0008 0020     		mov	r0, #0
 1105              	.LVL87:
 1106 000a FFF7FEFF 		bl	CyHalt
 1107              	.LVL88:
 1108              	.L103:
 953:.\Generated_Source\PSoC4/CyLFClk.c ****     }
 1109              		.loc 1 953 0 is_stmt 1
 1110 000e 034B     		ldr	r3, .L104
 1111 0010 1B68     		ldr	r3, [r3]
 1112 0012 2401     		lsl	r4, r4, #4
 1113              	.LVL89:
 1114 0014 E340     		lsr	r3, r3, r4
 1115 0016 1804     		lsl	r0, r3, #16
 1116 0018 000C     		lsr	r0, r0, #16
 954:.\Generated_Source\PSoC4/CyLFClk.c **** 
 1117              		.loc 1 954 0
 1118              		@ sp needed
 1119 001a 10BD     		pop	{r4, pc}
 1120              	.L105:
 1121              		.align	2
 1122              	.L104:
 1123 001c 08020B40 		.word	1074463240
 1124              		.cfi_endproc
 1125              	.LFE25:
 1126              		.size	CySysWdtGetMatch, .-CySysWdtGetMatch
 1127              		.section	.text.CySysWdtGetCount,"ax",%progbits
 1128              		.align	2
 1129              		.global	CySysWdtGetCount
 1130              		.code	16
 1131              		.thumb_func
 1132              		.type	CySysWdtGetCount, %function
 1133              	CySysWdtGetCount:
 1134              	.LFB26:
 973:.\Generated_Source\PSoC4/CyLFClk.c ****         uint32 regValue = 0u;
 1135              		.loc 1 973 0
 1136              		.cfi_startproc
 1137              	.LVL90:
 1138 0000 08B5     		push	{r3, lr}
 1139              		.cfi_def_cfa_offset 8
 1140              		.cfi_offset 3, -8
 1141              		.cfi_offset 14, -4
ARM GAS  C:\Users\Tim\AppData\Local\Temp\cc4ChIIk.s 			page 58


 1142              	.LVL91:
 976:.\Generated_Source\PSoC4/CyLFClk.c ****         {
 1143              		.loc 1 976 0
 1144 0002 0128     		cmp	r0, #1
 1145 0004 09D0     		beq	.L108
 1146 0006 0028     		cmp	r0, #0
 1147 0008 02D0     		beq	.L109
 1148 000a 0228     		cmp	r0, #2
 1149 000c 09D0     		beq	.L110
 1150 000e 0BE0     		b	.L112
 1151              	.L109:
 980:.\Generated_Source\PSoC4/CyLFClk.c ****             break;
 1152              		.loc 1 980 0
 1153 0010 084B     		ldr	r3, .L113
 1154 0012 1868     		ldr	r0, [r3]
 1155              	.LVL92:
 1156 0014 0004     		lsl	r0, r0, #16
 1157 0016 000C     		lsr	r0, r0, #16
 1158              	.LVL93:
 981:.\Generated_Source\PSoC4/CyLFClk.c **** 
 1159              		.loc 1 981 0
 1160 0018 0AE0     		b	.L111
 1161              	.LVL94:
 1162              	.L108:
 985:.\Generated_Source\PSoC4/CyLFClk.c ****             break;
 1163              		.loc 1 985 0
 1164 001a 064B     		ldr	r3, .L113
 1165 001c 1868     		ldr	r0, [r3]
 1166              	.LVL95:
 1167 001e 000C     		lsr	r0, r0, #16
 1168              	.LVL96:
 986:.\Generated_Source\PSoC4/CyLFClk.c **** 
 1169              		.loc 1 986 0
 1170 0020 06E0     		b	.L111
 1171              	.LVL97:
 1172              	.L110:
 990:.\Generated_Source\PSoC4/CyLFClk.c ****             break;
 1173              		.loc 1 990 0
 1174 0022 054B     		ldr	r3, .L113+4
 1175 0024 1868     		ldr	r0, [r3]
 1176              	.LVL98:
 991:.\Generated_Source\PSoC4/CyLFClk.c **** 
 1177              		.loc 1 991 0
 1178 0026 03E0     		b	.L111
 1179              	.LVL99:
 1180              	.L112:
 994:.\Generated_Source\PSoC4/CyLFClk.c ****             break;
 1181              		.loc 1 994 0 discriminator 1
 1182 0028 0020     		mov	r0, #0
 1183              	.LVL100:
 1184 002a FFF7FEFF 		bl	CyHalt
 1185              	.LVL101:
 974:.\Generated_Source\PSoC4/CyLFClk.c **** 
 1186              		.loc 1 974 0 discriminator 1
 1187 002e 0020     		mov	r0, #0
 1188              	.LVL102:
 1189              	.L111:
ARM GAS  C:\Users\Tim\AppData\Local\Temp\cc4ChIIk.s 			page 59


 999:.\Generated_Source\PSoC4/CyLFClk.c **** 
 1190              		.loc 1 999 0
 1191              		@ sp needed
 1192 0030 08BD     		pop	{r3, pc}
 1193              	.L114:
 1194 0032 C046     		.align	2
 1195              	.L113:
 1196 0034 00020B40 		.word	1074463232
 1197 0038 04020B40 		.word	1074463236
 1198              		.cfi_endproc
 1199              	.LFE26:
 1200              		.size	CySysWdtGetCount, .-CySysWdtGetCount
 1201              		.section	.text.CySysClkLfclkPosedgeCatch,"ax",%progbits
 1202              		.align	2
 1203              		.code	16
 1204              		.thumb_func
 1205              		.type	CySysClkLfclkPosedgeCatch, %function
 1206              	CySysClkLfclkPosedgeCatch:
 1207              	.LFB38:
1573:.\Generated_Source\PSoC4/CyLFClk.c ****         uint32 firstCount;
 1208              		.loc 1 1573 0
 1209              		.cfi_startproc
 1210 0000 10B5     		push	{r4, lr}
 1211              		.cfi_def_cfa_offset 8
 1212              		.cfi_offset 4, -8
 1213              		.cfi_offset 14, -4
1577:.\Generated_Source\PSoC4/CyLFClk.c ****         {
 1214              		.loc 1 1577 0
 1215 0002 0020     		mov	r0, #0
 1216 0004 FFF7FEFF 		bl	CySysWdtGetEnabledStatus
 1217              	.LVL103:
 1218 0008 0028     		cmp	r0, #0
 1219 000a 03D0     		beq	.L116
1579:.\Generated_Source\PSoC4/CyLFClk.c ****         }
 1220              		.loc 1 1579 0
 1221 000c 0022     		mov	r2, #0
 1222 000e 184B     		ldr	r3, .L121
 1223 0010 9A60     		str	r2, [r3, #8]
 1224 0012 21E0     		b	.L117
 1225              	.L116:
1581:.\Generated_Source\PSoC4/CyLFClk.c ****         {
 1226              		.loc 1 1581 0
 1227 0014 0120     		mov	r0, #1
 1228 0016 FFF7FEFF 		bl	CySysWdtGetEnabledStatus
 1229              	.LVL104:
 1230 001a 0028     		cmp	r0, #0
 1231 001c 03D0     		beq	.L118
1583:.\Generated_Source\PSoC4/CyLFClk.c ****         }
 1232              		.loc 1 1583 0
 1233 001e 0122     		mov	r2, #1
 1234 0020 134B     		ldr	r3, .L121
 1235 0022 9A60     		str	r2, [r3, #8]
 1236 0024 18E0     		b	.L117
 1237              	.L118:
1585:.\Generated_Source\PSoC4/CyLFClk.c ****         {
 1238              		.loc 1 1585 0
 1239 0026 0220     		mov	r0, #2
ARM GAS  C:\Users\Tim\AppData\Local\Temp\cc4ChIIk.s 			page 60


 1240 0028 FFF7FEFF 		bl	CySysWdtGetEnabledStatus
 1241              	.LVL105:
 1242 002c 0028     		cmp	r0, #0
 1243 002e 03D0     		beq	.L119
1587:.\Generated_Source\PSoC4/CyLFClk.c ****         }
 1244              		.loc 1 1587 0
 1245 0030 0222     		mov	r2, #2
 1246 0032 0F4B     		ldr	r3, .L121
 1247 0034 9A60     		str	r2, [r3, #8]
 1248 0036 0FE0     		b	.L117
 1249              	.L119:
1592:.\Generated_Source\PSoC4/CyLFClk.c ****             lfclkPosedgeEnabledWdtCounter = CY_SYS_WDT_COUNTER0;
 1250              		.loc 1 1592 0
 1251 0038 0D4C     		ldr	r4, .L121
 1252 003a 0123     		mov	r3, #1
 1253 003c 2360     		str	r3, [r4]
1593:.\Generated_Source\PSoC4/CyLFClk.c **** 
 1254              		.loc 1 1593 0
 1255 003e 0023     		mov	r3, #0
 1256 0040 A360     		str	r3, [r4, #8]
1595:.\Generated_Source\PSoC4/CyLFClk.c ****             CySysWdtSetMode(CY_SYS_WDT_COUNTER0, CY_SYS_WDT_MODE_NONE);
 1257              		.loc 1 1595 0
 1258 0042 0020     		mov	r0, #0
 1259 0044 FFF7FEFF 		bl	CySysWdtGetMode
 1260              	.LVL106:
 1261 0048 6060     		str	r0, [r4, #4]
1596:.\Generated_Source\PSoC4/CyLFClk.c ****             CySysWdtEnable(CY_SYS_WDT_COUNTER0_MASK);
 1262              		.loc 1 1596 0
 1263 004a 0020     		mov	r0, #0
 1264 004c 0021     		mov	r1, #0
 1265 004e FFF7FEFF 		bl	CySysWdtSetMode
 1266              	.LVL107:
1597:.\Generated_Source\PSoC4/CyLFClk.c ****         }
 1267              		.loc 1 1597 0
 1268 0052 0120     		mov	r0, #1
 1269 0054 FFF7FEFF 		bl	CySysWdtEnable
 1270              	.LVL108:
 1271              	.L117:
1600:.\Generated_Source\PSoC4/CyLFClk.c ****         while (CySysWdtGetCount(lfclkPosedgeEnabledWdtCounter) == firstCount)
 1272              		.loc 1 1600 0
 1273 0058 054B     		ldr	r3, .L121
 1274 005a 9868     		ldr	r0, [r3, #8]
 1275 005c FFF7FEFF 		bl	CySysWdtGetCount
 1276              	.LVL109:
 1277 0060 041C     		mov	r4, r0
 1278              	.LVL110:
 1279              	.L120:
1601:.\Generated_Source\PSoC4/CyLFClk.c ****         {
 1280              		.loc 1 1601 0 discriminator 1
 1281 0062 034B     		ldr	r3, .L121
 1282 0064 9868     		ldr	r0, [r3, #8]
 1283 0066 FFF7FEFF 		bl	CySysWdtGetCount
 1284              	.LVL111:
 1285 006a A042     		cmp	r0, r4
 1286 006c F9D0     		beq	.L120
1605:.\Generated_Source\PSoC4/CyLFClk.c **** 
 1287              		.loc 1 1605 0
ARM GAS  C:\Users\Tim\AppData\Local\Temp\cc4ChIIk.s 			page 61


 1288              		@ sp needed
 1289              	.LVL112:
 1290 006e 10BD     		pop	{r4, pc}
 1291              	.L122:
 1292              		.align	2
 1293              	.L121:
 1294 0070 00000000 		.word	.LANCHOR0
 1295              		.cfi_endproc
 1296              	.LFE38:
 1297              		.size	CySysClkLfclkPosedgeCatch, .-CySysClkLfclkPosedgeCatch
 1298              		.section	.text.CySysClkIloStop,"ax",%progbits
 1299              		.align	2
 1300              		.global	CySysClkIloStop
 1301              		.code	16
 1302              		.thumb_func
 1303              		.type	CySysClkIloStop, %function
 1304              	CySysClkIloStop:
 1305              	.LFB2:
  97:.\Generated_Source\PSoC4/CyLFClk.c ****     #if(CY_IP_SRSSV2)
 1306              		.loc 1 97 0
 1307              		.cfi_startproc
 1308 0000 10B5     		push	{r4, lr}
 1309              		.cfi_def_cfa_offset 8
 1310              		.cfi_offset 4, -8
 1311              		.cfi_offset 14, -4
 102:.\Generated_Source\PSoC4/CyLFClk.c ****         {
 1312              		.loc 1 102 0
 1313 0002 FFF7FEFF 		bl	CySysWdtLocked
 1314              	.LVL113:
 1315 0006 0028     		cmp	r0, #0
 1316 0008 1CD1     		bne	.L123
 104:.\Generated_Source\PSoC4/CyLFClk.c ****             {
 1317              		.loc 1 104 0
 1318 000a FFF7FEFF 		bl	CySysClkIloEnabled
 1319              	.LVL114:
 1320 000e 0028     		cmp	r0, #0
 1321 0010 18D0     		beq	.L123
 108:.\Generated_Source\PSoC4/CyLFClk.c ****                 {
 1322              		.loc 1 108 0
 1323 0012 FFF7FEFF 		bl	CySysClkGetLfclkSource
 1324              	.LVL115:
 1325 0016 0028     		cmp	r0, #0
 1326 0018 0FD1     		bne	.L125
 112:.\Generated_Source\PSoC4/CyLFClk.c ****                 CySysClkLfclkPosedgeCatch();
 1327              		.loc 1 112 0
 1328 001a FFF7FEFF 		bl	CyEnterCriticalSection
 1329              	.LVL116:
 1330 001e 041C     		mov	r4, r0
 1331              	.LVL117:
 113:.\Generated_Source\PSoC4/CyLFClk.c ****                 CY_SYS_CLK_ILO_CONFIG_REG &= ( uint32 ) ( ~( uint32 )CY_SYS_CLK_ILO_CONFIG_ENABLE);
 1332              		.loc 1 113 0
 1333 0020 FFF7FEFF 		bl	CySysClkLfclkPosedgeCatch
 1334              	.LVL118:
 114:.\Generated_Source\PSoC4/CyLFClk.c ****                 CySysClkLfclkPosedgeRestore();
 1335              		.loc 1 114 0
 1336 0024 084A     		ldr	r2, .L126
 1337 0026 1368     		ldr	r3, [r2]
ARM GAS  C:\Users\Tim\AppData\Local\Temp\cc4ChIIk.s 			page 62


 1338 0028 5B00     		lsl	r3, r3, #1
 1339 002a 5B08     		lsr	r3, r3, #1
 1340 002c 1360     		str	r3, [r2]
 115:.\Generated_Source\PSoC4/CyLFClk.c ****                 CyExitCriticalSection(interruptState);
 1341              		.loc 1 115 0
 1342 002e FFF7FEFF 		bl	CySysClkLfclkPosedgeRestore
 1343              	.LVL119:
 116:.\Generated_Source\PSoC4/CyLFClk.c **** 
 1344              		.loc 1 116 0
 1345 0032 201C     		mov	r0, r4
 1346 0034 FFF7FEFF 		bl	CyExitCriticalSection
 1347              	.LVL120:
 1348 0038 04E0     		b	.L123
 1349              	.LVL121:
 1350              	.L125:
 122:.\Generated_Source\PSoC4/CyLFClk.c ****                 }
 1351              		.loc 1 122 0
 1352 003a 034A     		ldr	r2, .L126
 1353 003c 1368     		ldr	r3, [r2]
 1354 003e 5B00     		lsl	r3, r3, #1
 1355 0040 5B08     		lsr	r3, r3, #1
 1356 0042 1360     		str	r3, [r2]
 1357              	.L123:
 131:.\Generated_Source\PSoC4/CyLFClk.c **** 
 1358              		.loc 1 131 0
 1359              		@ sp needed
 1360 0044 10BD     		pop	{r4, pc}
 1361              	.L127:
 1362 0046 C046     		.align	2
 1363              	.L126:
 1364 0048 04010B40 		.word	1074462980
 1365              		.cfi_endproc
 1366              	.LFE2:
 1367              		.size	CySysClkIloStop, .-CySysClkIloStop
 1368              		.section	.text.CySysClkSetLfclkSource,"ax",%progbits
 1369              		.align	2
 1370              		.global	CySysClkSetLfclkSource
 1371              		.code	16
 1372              		.thumb_func
 1373              		.type	CySysClkSetLfclkSource, %function
 1374              	CySysClkSetLfclkSource:
 1375              	.LFB5:
 226:.\Generated_Source\PSoC4/CyLFClk.c ****         uint8  interruptState;
 1376              		.loc 1 226 0
 1377              		.cfi_startproc
 1378              	.LVL122:
 1379 0000 38B5     		push	{r3, r4, r5, lr}
 1380              		.cfi_def_cfa_offset 16
 1381              		.cfi_offset 3, -16
 1382              		.cfi_offset 4, -12
 1383              		.cfi_offset 5, -8
 1384              		.cfi_offset 14, -4
 1385 0002 041C     		mov	r4, r0
 229:.\Generated_Source\PSoC4/CyLFClk.c ****         {
 1386              		.loc 1 229 0
 1387 0004 FFF7FEFF 		bl	CySysClkGetLfclkSource
 1388              	.LVL123:
ARM GAS  C:\Users\Tim\AppData\Local\Temp\cc4ChIIk.s 			page 63


 1389 0008 A042     		cmp	r0, r4
 1390 000a 11D0     		beq	.L128
 231:.\Generated_Source\PSoC4/CyLFClk.c **** 
 1391              		.loc 1 231 0
 1392 000c FFF7FEFF 		bl	CyEnterCriticalSection
 1393              	.LVL124:
 1394 0010 051C     		mov	r5, r0
 1395              	.LVL125:
 233:.\Generated_Source\PSoC4/CyLFClk.c **** 
 1396              		.loc 1 233 0
 1397 0012 FFF7FEFF 		bl	CySysClkLfclkPosedgeCatch
 1398              	.LVL126:
 235:.\Generated_Source\PSoC4/CyLFClk.c ****                                     (source & CY_SYS_CLK_LFCLK_SEL_MASK);
 1399              		.loc 1 235 0
 1400 0016 074A     		ldr	r2, .L130
 1401 0018 1368     		ldr	r3, [r2]
 1402 001a 9B00     		lsl	r3, r3, #2
 1403 001c 9B08     		lsr	r3, r3, #2
 236:.\Generated_Source\PSoC4/CyLFClk.c **** 
 1404              		.loc 1 236 0
 1405 001e A40F     		lsr	r4, r4, #30
 1406              	.LVL127:
 1407 0020 A407     		lsl	r4, r4, #30
 235:.\Generated_Source\PSoC4/CyLFClk.c ****                                     (source & CY_SYS_CLK_LFCLK_SEL_MASK);
 1408              		.loc 1 235 0
 1409 0022 1C43     		orr	r4, r3
 1410 0024 1460     		str	r4, [r2]
 238:.\Generated_Source\PSoC4/CyLFClk.c **** 
 1411              		.loc 1 238 0
 1412 0026 FFF7FEFF 		bl	CySysClkLfclkPosedgeRestore
 1413              	.LVL128:
 240:.\Generated_Source\PSoC4/CyLFClk.c ****         }
 1414              		.loc 1 240 0
 1415 002a 281C     		mov	r0, r5
 1416 002c FFF7FEFF 		bl	CyExitCriticalSection
 1417              	.LVL129:
 1418              	.L128:
 242:.\Generated_Source\PSoC4/CyLFClk.c **** #endif /* (CY_IP_WCO) */
 1419              		.loc 1 242 0
 1420              		@ sp needed
 1421 0030 38BD     		pop	{r3, r4, r5, pc}
 1422              	.L131:
 1423 0032 C046     		.align	2
 1424              	.L130:
 1425 0034 0C020B40 		.word	1074463244
 1426              		.cfi_endproc
 1427              	.LFE5:
 1428              		.size	CySysClkSetLfclkSource, .-CySysClkSetLfclkSource
 1429              		.section	.text.CySysClkWcoStop,"ax",%progbits
 1430              		.align	2
 1431              		.global	CySysClkWcoStop
 1432              		.code	16
 1433              		.thumb_func
 1434              		.type	CySysClkWcoStop, %function
 1435              	CySysClkWcoStop:
 1436              	.LFB7:
 292:.\Generated_Source\PSoC4/CyLFClk.c ****         uint8  interruptState;
ARM GAS  C:\Users\Tim\AppData\Local\Temp\cc4ChIIk.s 			page 64


 1437              		.loc 1 292 0
 1438              		.cfi_startproc
 1439 0000 10B5     		push	{r4, lr}
 1440              		.cfi_def_cfa_offset 8
 1441              		.cfi_offset 4, -8
 1442              		.cfi_offset 14, -4
 295:.\Generated_Source\PSoC4/CyLFClk.c ****         {
 1443              		.loc 1 295 0
 1444 0002 FFF7FEFF 		bl	CySysClkWcoEnabled
 1445              	.LVL130:
 1446 0006 0028     		cmp	r0, #0
 1447 0008 1AD0     		beq	.L132
 298:.\Generated_Source\PSoC4/CyLFClk.c ****             {
 1448              		.loc 1 298 0
 1449 000a FFF7FEFF 		bl	CySysClkGetLfclkSource
 1450              	.LVL131:
 1451 000e 8023     		mov	r3, #128
 1452 0010 DB05     		lsl	r3, r3, #23
 1453 0012 9842     		cmp	r0, r3
 1454 0014 0FD1     		bne	.L134
 300:.\Generated_Source\PSoC4/CyLFClk.c ****                 CySysClkLfclkPosedgeCatch();
 1455              		.loc 1 300 0
 1456 0016 FFF7FEFF 		bl	CyEnterCriticalSection
 1457              	.LVL132:
 1458 001a 041C     		mov	r4, r0
 1459              	.LVL133:
 301:.\Generated_Source\PSoC4/CyLFClk.c ****                 CY_SYS_CLK_WCO_CONFIG_REG &= (uint32) ~CY_SYS_CLK_WCO_CONFIG_LPM_ENABLE;
 1460              		.loc 1 301 0
 1461 001c FFF7FEFF 		bl	CySysClkLfclkPosedgeCatch
 1462              	.LVL134:
 302:.\Generated_Source\PSoC4/CyLFClk.c ****                 CySysClkLfclkPosedgeRestore();
 1463              		.loc 1 302 0
 1464 0020 084A     		ldr	r2, .L135
 1465 0022 1368     		ldr	r3, [r2]
 1466 0024 5B00     		lsl	r3, r3, #1
 1467 0026 5B08     		lsr	r3, r3, #1
 1468 0028 1360     		str	r3, [r2]
 303:.\Generated_Source\PSoC4/CyLFClk.c ****                 CyExitCriticalSection(interruptState);
 1469              		.loc 1 303 0
 1470 002a FFF7FEFF 		bl	CySysClkLfclkPosedgeRestore
 1471              	.LVL135:
 304:.\Generated_Source\PSoC4/CyLFClk.c ****             }
 1472              		.loc 1 304 0
 1473 002e 201C     		mov	r0, r4
 1474 0030 FFF7FEFF 		bl	CyExitCriticalSection
 1475              	.LVL136:
 1476 0034 04E0     		b	.L132
 1477              	.LVL137:
 1478              	.L134:
 308:.\Generated_Source\PSoC4/CyLFClk.c ****             }
 1479              		.loc 1 308 0
 1480 0036 034A     		ldr	r2, .L135
 1481 0038 1368     		ldr	r3, [r2]
 1482 003a 5B00     		lsl	r3, r3, #1
 1483 003c 5B08     		lsr	r3, r3, #1
 1484 003e 1360     		str	r3, [r2]
 1485              	.L132:
ARM GAS  C:\Users\Tim\AppData\Local\Temp\cc4ChIIk.s 			page 65


 311:.\Generated_Source\PSoC4/CyLFClk.c **** 
 1486              		.loc 1 311 0
 1487              		@ sp needed
 1488 0040 10BD     		pop	{r4, pc}
 1489              	.L136:
 1490 0042 C046     		.align	2
 1491              	.L135:
 1492 0044 00002240 		.word	1075970048
 1493              		.cfi_endproc
 1494              	.LFE7:
 1495              		.size	CySysClkWcoStop, .-CySysClkWcoStop
 1496              		.section	.text.CySysWdtGetInterruptSource,"ax",%progbits
 1497              		.align	2
 1498              		.global	CySysWdtGetInterruptSource
 1499              		.code	16
 1500              		.thumb_func
 1501              		.type	CySysWdtGetInterruptSource, %function
 1502              	CySysWdtGetInterruptSource:
 1503              	.LFB27:
1022:.\Generated_Source\PSoC4/CyLFClk.c ****         return (CY_SYS_WDT_CONTROL_REG & (CY_SYS_WDT_COUNTER0_INT | CY_SYS_WDT_COUNTER1_INT | CY_SY
 1504              		.loc 1 1022 0
 1505              		.cfi_startproc
1023:.\Generated_Source\PSoC4/CyLFClk.c ****     }
 1506              		.loc 1 1023 0
 1507 0000 024B     		ldr	r3, .L138
 1508 0002 1868     		ldr	r0, [r3]
 1509 0004 024B     		ldr	r3, .L138+4
 1510 0006 1840     		and	r0, r3
1024:.\Generated_Source\PSoC4/CyLFClk.c **** 
 1511              		.loc 1 1024 0
 1512              		@ sp needed
 1513 0008 7047     		bx	lr
 1514              	.L139:
 1515 000a C046     		.align	2
 1516              	.L138:
 1517 000c 10020B40 		.word	1074463248
 1518 0010 04040400 		.word	263172
 1519              		.cfi_endproc
 1520              	.LFE27:
 1521              		.size	CySysWdtGetInterruptSource, .-CySysWdtGetInterruptSource
 1522              		.section	.text.CySysWdtClearInterrupt,"ax",%progbits
 1523              		.align	2
 1524              		.global	CySysWdtClearInterrupt
 1525              		.code	16
 1526              		.thumb_func
 1527              		.type	CySysWdtClearInterrupt, %function
 1528              	CySysWdtClearInterrupt:
 1529              	.LFB28:
1056:.\Generated_Source\PSoC4/CyLFClk.c ****         uint8 interruptState;
 1530              		.loc 1 1056 0
 1531              		.cfi_startproc
 1532              	.LVL138:
 1533 0000 70B5     		push	{r4, r5, r6, lr}
 1534              		.cfi_def_cfa_offset 16
 1535              		.cfi_offset 4, -16
 1536              		.cfi_offset 5, -12
 1537              		.cfi_offset 6, -8
ARM GAS  C:\Users\Tim\AppData\Local\Temp\cc4ChIIk.s 			page 66


 1538              		.cfi_offset 14, -4
 1539 0002 061C     		mov	r6, r0
1060:.\Generated_Source\PSoC4/CyLFClk.c **** 
 1540              		.loc 1 1060 0
 1541 0004 FFF7FEFF 		bl	CyEnterCriticalSection
 1542              	.LVL139:
 1543 0008 041C     		mov	r4, r0
 1544              	.LVL140:
1062:.\Generated_Source\PSoC4/CyLFClk.c ****         {
 1545              		.loc 1 1062 0
 1546 000a FFF7FEFF 		bl	CySysWdtLocked
 1547              	.LVL141:
 1548 000e 0028     		cmp	r0, #0
 1549 0010 03D0     		beq	.L143
 1550              	.LVL142:
1065:.\Generated_Source\PSoC4/CyLFClk.c ****         }
 1551              		.loc 1 1065 0
 1552 0012 FFF7FEFF 		bl	CySysWdtUnlock
 1553              	.LVL143:
1064:.\Generated_Source\PSoC4/CyLFClk.c ****             CySysWdtUnlock();
 1554              		.loc 1 1064 0
 1555 0016 0125     		mov	r5, #1
 1556 0018 00E0     		b	.L141
 1557              	.LVL144:
 1558              	.L143:
1069:.\Generated_Source\PSoC4/CyLFClk.c ****         }
 1559              		.loc 1 1069 0
 1560 001a 0025     		mov	r5, #0
 1561              	.L141:
 1562              	.LVL145:
1073:.\Generated_Source\PSoC4/CyLFClk.c ****                         CY_SYS_WDT_COUNTER1_INT |
 1563              		.loc 1 1073 0
 1564 001c 0848     		ldr	r0, .L144
 1565 001e 331C     		mov	r3, r6
 1566 0020 0340     		and	r3, r0
 1567              	.LVL146:
1077:.\Generated_Source\PSoC4/CyLFClk.c ****                                                                            CY_SYS_WDT_COUNTER1_INT 
 1568              		.loc 1 1077 0
 1569 0022 084A     		ldr	r2, .L144+4
 1570 0024 1068     		ldr	r0, [r2]
 1571 0026 0849     		ldr	r1, .L144+8
 1572 0028 0840     		and	r0, r1
 1573 002a 1843     		orr	r0, r3
 1574 002c 1060     		str	r0, [r2]
1084:.\Generated_Source\PSoC4/CyLFClk.c **** 
 1575              		.loc 1 1084 0
 1576 002e 1368     		ldr	r3, [r2]
 1577              	.LVL147:
1086:.\Generated_Source\PSoC4/CyLFClk.c ****         {
 1578              		.loc 1 1086 0
 1579 0030 012D     		cmp	r5, #1
 1580 0032 01D1     		bne	.L142
1088:.\Generated_Source\PSoC4/CyLFClk.c ****         }
 1581              		.loc 1 1088 0
 1582 0034 FFF7FEFF 		bl	CySysWdtLock
 1583              	.LVL148:
 1584              	.L142:
ARM GAS  C:\Users\Tim\AppData\Local\Temp\cc4ChIIk.s 			page 67


1091:.\Generated_Source\PSoC4/CyLFClk.c ****     }
 1585              		.loc 1 1091 0
 1586 0038 201C     		mov	r0, r4
 1587 003a FFF7FEFF 		bl	CyExitCriticalSection
 1588              	.LVL149:
1092:.\Generated_Source\PSoC4/CyLFClk.c **** 
 1589              		.loc 1 1092 0
 1590              		@ sp needed
 1591              	.LVL150:
 1592              	.LVL151:
 1593              	.LVL152:
 1594 003e 70BD     		pop	{r4, r5, r6, pc}
 1595              	.L145:
 1596              		.align	2
 1597              	.L144:
 1598 0040 04040400 		.word	263172
 1599 0044 10020B40 		.word	1074463248
 1600 0048 FBFBFBFF 		.word	-263173
 1601              		.cfi_endproc
 1602              	.LFE28:
 1603              		.size	CySysWdtClearInterrupt, .-CySysWdtClearInterrupt
 1604              		.section	.text.CySysWdtResetCounters,"ax",%progbits
 1605              		.align	2
 1606              		.global	CySysWdtResetCounters
 1607              		.code	16
 1608              		.thumb_func
 1609              		.type	CySysWdtResetCounters, %function
 1610              	CySysWdtResetCounters:
 1611              	.LFB29:
1120:.\Generated_Source\PSoC4/CyLFClk.c ****         /* Set new WDT reset value */
 1612              		.loc 1 1120 0
 1613              		.cfi_startproc
 1614              	.LVL153:
1122:.\Generated_Source\PSoC4/CyLFClk.c **** 
 1615              		.loc 1 1122 0
 1616 0000 054A     		ldr	r2, .L148
 1617 0002 1168     		ldr	r1, [r2]
 1618 0004 054B     		ldr	r3, .L148+4
 1619 0006 1840     		and	r0, r3
 1620              	.LVL154:
 1621 0008 0843     		orr	r0, r1
 1622 000a 1060     		str	r0, [r2]
 1623              	.L147:
1124:.\Generated_Source\PSoC4/CyLFClk.c ****         {
 1624              		.loc 1 1124 0 discriminator 1
 1625 000c 024B     		ldr	r3, .L148
 1626 000e 1A68     		ldr	r2, [r3]
 1627 0010 024B     		ldr	r3, .L148+4
 1628 0012 1A42     		tst	r2, r3
 1629 0014 FAD1     		bne	.L147
1128:.\Generated_Source\PSoC4/CyLFClk.c **** 
 1630              		.loc 1 1128 0
 1631              		@ sp needed
 1632 0016 7047     		bx	lr
 1633              	.L149:
 1634              		.align	2
 1635              	.L148:
ARM GAS  C:\Users\Tim\AppData\Local\Temp\cc4ChIIk.s 			page 68


 1636 0018 10020B40 		.word	1074463248
 1637 001c 08080800 		.word	526344
 1638              		.cfi_endproc
 1639              	.LFE29:
 1640              		.size	CySysWdtResetCounters, .-CySysWdtResetCounters
 1641              		.section	.text.CySysWdtSetInterruptCallback,"ax",%progbits
 1642              		.align	2
 1643              		.global	CySysWdtSetInterruptCallback
 1644              		.code	16
 1645              		.thumb_func
 1646              		.type	CySysWdtSetInterruptCallback, %function
 1647              	CySysWdtSetInterruptCallback:
 1648              	.LFB30:
1149:.\Generated_Source\PSoC4/CyLFClk.c ****         cyWdtCallback prevCallback = (void *)0;
 1649              		.loc 1 1149 0
 1650              		.cfi_startproc
 1651              	.LVL155:
 1652 0000 08B5     		push	{r3, lr}
 1653              		.cfi_def_cfa_offset 8
 1654              		.cfi_offset 3, -8
 1655              		.cfi_offset 14, -4
 1656              	.LVL156:
1152:.\Generated_Source\PSoC4/CyLFClk.c ****         {
 1657              		.loc 1 1152 0
 1658 0002 0228     		cmp	r0, #2
 1659 0004 05D8     		bhi	.L151
1154:.\Generated_Source\PSoC4/CyLFClk.c ****             cySysWdtCallback[counterNum] = function;
 1660              		.loc 1 1154 0
 1661 0006 8000     		lsl	r0, r0, #2
 1662              	.LVL157:
 1663 0008 044B     		ldr	r3, .L153
 1664 000a 1B18     		add	r3, r3, r0
 1665 000c D868     		ldr	r0, [r3, #12]
 1666              	.LVL158:
1155:.\Generated_Source\PSoC4/CyLFClk.c ****         }
 1667              		.loc 1 1155 0
 1668 000e D960     		str	r1, [r3, #12]
 1669 0010 03E0     		b	.L152
 1670              	.LVL159:
 1671              	.L151:
1159:.\Generated_Source\PSoC4/CyLFClk.c ****         }
 1672              		.loc 1 1159 0 discriminator 1
 1673 0012 0020     		mov	r0, #0
 1674              	.LVL160:
 1675 0014 FFF7FEFF 		bl	CyHalt
 1676              	.LVL161:
1150:.\Generated_Source\PSoC4/CyLFClk.c **** 
 1677              		.loc 1 1150 0 discriminator 1
 1678 0018 0020     		mov	r0, #0
 1679              	.LVL162:
 1680              	.L152:
1163:.\Generated_Source\PSoC4/CyLFClk.c **** 
 1681              		.loc 1 1163 0
 1682              		@ sp needed
 1683 001a 08BD     		pop	{r3, pc}
 1684              	.L154:
 1685              		.align	2
ARM GAS  C:\Users\Tim\AppData\Local\Temp\cc4ChIIk.s 			page 69


 1686              	.L153:
 1687 001c 00000000 		.word	.LANCHOR0
 1688              		.cfi_endproc
 1689              	.LFE30:
 1690              		.size	CySysWdtSetInterruptCallback, .-CySysWdtSetInterruptCallback
 1691              		.section	.text.CySysWdtGetInterruptCallback,"ax",%progbits
 1692              		.align	2
 1693              		.global	CySysWdtGetInterruptCallback
 1694              		.code	16
 1695              		.thumb_func
 1696              		.type	CySysWdtGetInterruptCallback, %function
 1697              	CySysWdtGetInterruptCallback:
 1698              	.LFB31:
1182:.\Generated_Source\PSoC4/CyLFClk.c ****         cyWdtCallback retCallback = (void *)0;
 1699              		.loc 1 1182 0
 1700              		.cfi_startproc
 1701              	.LVL163:
 1702 0000 08B5     		push	{r3, lr}
 1703              		.cfi_def_cfa_offset 8
 1704              		.cfi_offset 3, -8
 1705              		.cfi_offset 14, -4
 1706              	.LVL164:
1185:.\Generated_Source\PSoC4/CyLFClk.c ****         {
 1707              		.loc 1 1185 0
 1708 0002 0228     		cmp	r0, #2
 1709 0004 04D8     		bhi	.L156
1187:.\Generated_Source\PSoC4/CyLFClk.c ****         }
 1710              		.loc 1 1187 0
 1711 0006 8000     		lsl	r0, r0, #2
 1712              	.LVL165:
 1713 0008 044B     		ldr	r3, .L158
 1714 000a 1818     		add	r0, r3, r0
 1715 000c C068     		ldr	r0, [r0, #12]
 1716              	.LVL166:
 1717 000e 03E0     		b	.L157
 1718              	.LVL167:
 1719              	.L156:
1191:.\Generated_Source\PSoC4/CyLFClk.c ****         }
 1720              		.loc 1 1191 0 discriminator 1
 1721 0010 0020     		mov	r0, #0
 1722              	.LVL168:
 1723 0012 FFF7FEFF 		bl	CyHalt
 1724              	.LVL169:
1183:.\Generated_Source\PSoC4/CyLFClk.c **** 
 1725              		.loc 1 1183 0 discriminator 1
 1726 0016 0020     		mov	r0, #0
 1727              	.LVL170:
 1728              	.L157:
1195:.\Generated_Source\PSoC4/CyLFClk.c **** 
 1729              		.loc 1 1195 0
 1730              		@ sp needed
 1731 0018 08BD     		pop	{r3, pc}
 1732              	.L159:
 1733 001a C046     		.align	2
 1734              	.L158:
 1735 001c 00000000 		.word	.LANCHOR0
 1736              		.cfi_endproc
ARM GAS  C:\Users\Tim\AppData\Local\Temp\cc4ChIIk.s 			page 70


 1737              	.LFE31:
 1738              		.size	CySysWdtGetInterruptCallback, .-CySysWdtGetInterruptCallback
 1739              		.section	.text.CySysWdtEnableCounterIsr,"ax",%progbits
 1740              		.align	2
 1741              		.global	CySysWdtEnableCounterIsr
 1742              		.code	16
 1743              		.thumb_func
 1744              		.type	CySysWdtEnableCounterIsr, %function
 1745              	CySysWdtEnableCounterIsr:
 1746              	.LFB32:
1210:.\Generated_Source\PSoC4/CyLFClk.c ****         if(counterNum <= CY_SYS_WDT_COUNTER2)
 1747              		.loc 1 1210 0
 1748              		.cfi_startproc
 1749              	.LVL171:
 1750 0000 08B5     		push	{r3, lr}
 1751              		.cfi_def_cfa_offset 8
 1752              		.cfi_offset 3, -8
 1753              		.cfi_offset 14, -4
1211:.\Generated_Source\PSoC4/CyLFClk.c ****         {
 1754              		.loc 1 1211 0
 1755 0002 0228     		cmp	r0, #2
