ARM GAS  C:\Users\Tim\AppData\Local\Temp\ccm9qm4d.s 			page 1


   1              		.cpu cortex-m0
   2              		.fpu softvfp
   3              		.eabi_attribute 20, 1
   4              		.eabi_attribute 21, 1
   5              		.eabi_attribute 23, 3
   6              		.eabi_attribute 24, 1
   7              		.eabi_attribute 25, 1
   8              		.eabi_attribute 26, 1
   9              		.eabi_attribute 30, 1
  10              		.eabi_attribute 34, 0
  11              		.eabi_attribute 18, 4
  12              		.code	16
  13              		.file	"debug.c"
  14              		.text
  15              	.Ltext0:
  16              		.cfi_sections	.debug_frame
  17              		.section	.text.Debug_Init,"ax",%progbits
  18              		.align	2
  19              		.global	Debug_Init
  20              		.code	16
  21              		.thumb_func
  22              		.type	Debug_Init, %function
  23              	Debug_Init:
  24              	.LFB36:
  25              		.file 1 "..\\..\\source\\debug.c"
   1:..\..\source/debug.c **** #include "debug.h"
   2:..\..\source/debug.c **** 
   3:..\..\source/debug.c **** void Debug_Init()
   4:..\..\source/debug.c **** {
  26              		.loc 1 4 0
  27              		.cfi_startproc
  28 0000 08B5     		push	{r3, lr}
  29              		.cfi_def_cfa_offset 8
  30              		.cfi_offset 3, -8
  31              		.cfi_offset 14, -4
   5:..\..\source/debug.c ****     memset(formatted_string, 0, sizeof(formatted_string));
  32              		.loc 1 5 0
  33 0002 0348     		ldr	r0, .L2
  34 0004 0021     		mov	r1, #0
  35 0006 8022     		mov	r2, #128
  36 0008 5200     		lsl	r2, r2, #1
  37 000a FFF7FEFF 		bl	memset
  38              	.LVL0:
   6:..\..\source/debug.c **** }
  39              		.loc 1 6 0
  40              		@ sp needed
  41 000e 08BD     		pop	{r3, pc}
  42              	.L3:
  43              		.align	2
  44              	.L2:
  45 0010 00000000 		.word	formatted_string
  46              		.cfi_endproc
  47              	.LFE36:
  48              		.size	Debug_Init, .-Debug_Init
  49              		.section	.text.Debug_Start,"ax",%progbits
  50              		.align	2
  51              		.global	Debug_Start
ARM GAS  C:\Users\Tim\AppData\Local\Temp\ccm9qm4d.s 			page 2


  52              		.code	16
  53              		.thumb_func
  54              		.type	Debug_Start, %function
  55              	Debug_Start:
  56              	.LFB37:
   7:..\..\source/debug.c **** 
   8:..\..\source/debug.c **** void Debug_Start()
   9:..\..\source/debug.c **** {
  57              		.loc 1 9 0
  58              		.cfi_startproc
  59 0000 08B5     		push	{r3, lr}
  60              		.cfi_def_cfa_offset 8
  61              		.cfi_offset 3, -8
  62              		.cfi_offset 14, -4
  10:..\..\source/debug.c **** #ifdef COMMS_DEBUG_ENABLED
  11:..\..\source/debug.c ****     UARTCOMMS_Start();
  63              		.loc 1 11 0
  64 0002 FFF7FEFF 		bl	UARTCOMMS_Start
  65              	.LVL1:
  12:..\..\source/debug.c **** #endif
  13:..\..\source/debug.c **** }...
  66              		.loc 1 13 0
  67              		@ sp needed
  68 0006 08BD     		pop	{r3, pc}
  69              		.cfi_endproc
  70              	.LFE37:
  71              		.size	Debug_Start, .-Debug_Start
  72              		.comm	formatted_string,256,4
  73              		.text
  74              	.Letext0:
  75              		.file 2 "..\\..\\source\\debug.h"
  76              		.file 3 "Generated_Source\\PSoC4/UARTCOMMS.h"