ARM GAS  C:\Users\Tim\AppData\Local\Temp\ccipwujl.s 			page 1


   1              		.cpu cortex-m0
   2              		.fpu softvfp
   3              		.eabi_attribute 20, 1
   4              		.eabi_attribute 21, 1
   5              		.eabi_attribute 23, 3
   6              		.eabi_attribute 24, 1
   7              		.eabi_attribute 25, 1
   8              		.eabi_attribute 26, 1
   9              		.eabi_attribute 30, 1
  10              		.eabi_attribute 34, 0
  11              		.eabi_attribute 18, 4
  12              		.code	16
  13              		.file	"encoder.c"
  14              		.text
  15              	.Ltext0:
  16              		.cfi_sections	.debug_frame
  17              		.section	.text.CalcCount,"ax",%progbits
  18              		.align	2
  19              		.code	16
  20              		.thumb_func
  21              		.type	CalcCount, %function
  22              	CalcCount:
  23              	.LFB36:
  24              		.file 1 "..\\..\\source\\encoder.c"
   1:..\..\source/encoder.c **** /* ========================================
   2:..\..\source/encoder.c ****  *
   3:..\..\source/encoder.c ****  * Copyright YOUR COMPANY, THE YEAR
   4:..\..\source/encoder.c ****  * All Rights Reserved
   5:..\..\source/encoder.c ****  * UNPUBLISHED, LICENSED SOFTWARE.
   6:..\..\source/encoder.c ****  *
   7:..\..\source/encoder.c ****  * CONFIDENTIAL AND PROPRIETARY INFORMATION
   8:..\..\source/encoder.c ****  * WHICH IS THE PROPERTY OF your company.
   9:..\..\source/encoder.c ****  *
  10:..\..\source/encoder.c ****  * ========================================
  11:..\..\source/encoder.c **** */
  12:..\..\source/encoder.c **** 
  13:..\..\source/encoder.c **** #include <stdlib.h>
  14:..\..\source/encoder.c **** #include "encoder.h"
  15:..\..\source/encoder.c **** #include "utils.h"
  16:..\..\source/encoder.c **** #include "i2c.h"
  17:..\..\source/encoder.c **** #include "time.h"
  18:..\..\source/encoder.c **** #include "debug.h"
  19:..\..\source/encoder.c **** 
  20:..\..\source/encoder.c **** #define SAMPLE_RATE (20) /* Hz */
  21:..\..\source/encoder.c **** #define SAMPLE_PERIOD (1000/SAMPLE_RATE) /* milliseconds */
  22:..\..\source/encoder.c **** #define MILLIS_PER_SECOND (1000)
  23:..\..\source/encoder.c **** 
  24:..\..\source/encoder.c **** #define MILLIMETERS_PER_REVOLUTION (479) /* millimeters */
  25:..\..\source/encoder.c **** #define COUNTS_PER_REVOLUTION (72)  /* counts */
  26:..\..\source/encoder.c **** #define MILLIMETERS_PER_COUNT (MILLIMETERS_PER_REVOLUTION/COUNTS_PER_REVOLUTION) /* millimeters */
  27:..\..\source/encoder.c **** #define MILLIMETERS_PER_SECOND (758) /* millimeters */
  28:..\..\source/encoder.c **** 
  29:..\..\source/encoder.c **** /* Aliases for the encoder pins */
  30:..\..\source/encoder.c **** #define Pins_Encoder_A_Read() (Encoder_Pins_Read() & 0x01)
  31:..\..\source/encoder.c **** #define Pins_Encoder_B_Read() ((Encoder_Pins_Read() & 0x02) >> 1)
  32:..\..\source/encoder.c **** 
  33:..\..\source/encoder.c **** #define ENCODER_A (0x01)
ARM GAS  C:\Users\Tim\AppData\Local\Temp\ccipwujl.s 			page 2


  34:..\..\source/encoder.c **** #define ENCODER_B (0x02)
  35:..\..\source/encoder.c **** 
  36:..\..\source/encoder.c **** static volatile int32_t enc_count;
  37:..\..\source/encoder.c **** static volatile int32 last_enc_count;
  38:..\..\source/encoder.c **** static volatile int16 enc_velocity;
  39:..\..\source/encoder.c **** static volatile uint32 last_velocity_time;
  40:..\..\source/encoder.c **** 
  41:..\..\source/encoder.c **** // Encoder Lookup Table
  42:..\..\source/encoder.c **** //      sequence: 00 <-> 01 <-> 11 <-> 10 <-> 00 <-> 01 <-> 10 <-> 11 <-> ...
  43:..\..\source/encoder.c **** static const int8_t enc_states [] = { 0, /* 00 -> 00 : No Change    */
  44:..\..\source/encoder.c ****                                      -1, /* 00 -> 01 : CCW          */
  45:..\..\source/encoder.c ****                                       1, /* 00 -> 10 : CW           */
  46:..\..\source/encoder.c ****                                       0, /* 00 -> 11 : Can't Happen */
  47:..\..\source/encoder.c ****                                       1, /* 01 -> 00 : CW           */
  48:..\..\source/encoder.c ****                                       0, /* 01 -> 01 : No Change    */
  49:..\..\source/encoder.c ****                                       0, /* 01 -> 10 : Can't Happen */
  50:..\..\source/encoder.c ****                                      -1, /* 01 -> 11 : CCW          */
  51:..\..\source/encoder.c ****                                      -1, /* 10 -> 00 : CCW          */
  52:..\..\source/encoder.c ****                                       0, /* 10 -> 01 : Can't Happen */
  53:..\..\source/encoder.c ****                                       0, /* 10 -> 10 : No Change    */
  54:..\..\source/encoder.c ****                                       1, /* 10 -> 11 : CW           */
  55:..\..\source/encoder.c ****                                       0, /* 11 -> 00 : Can't Happen */
  56:..\..\source/encoder.c ****                                       1, /* 11 -> 01 : CW           */
  57:..\..\source/encoder.c ****                                      -1, /* 11 -> 10 : CCW          */
  58:..\..\source/encoder.c ****                                       0  /* 11 -> 11 : No Change    */
  59:..\..\source/encoder.c ****                                     };
  60:..\..\source/encoder.c **** static uint8 old_ab = 0;
  61:..\..\source/encoder.c **** 
  62:..\..\source/encoder.c **** static int32 CalcCount(uint8 a, uint8 b)
  63:..\..\source/encoder.c **** {
  25              		.loc 1 63 0
  26              		.cfi_startproc
  27              	.LVL0:
  64:..\..\source/encoder.c **** 
  65:..\..\source/encoder.c ****     /* Combine old state and new state into a 4 bit number, 0 .. 15, and use as an index
  66:..\..\source/encoder.c ****        into the encoder state transistion table
  67:..\..\source/encoder.c ****      */
  68:..\..\source/encoder.c ****     
  69:..\..\source/encoder.c ****     old_ab <<= 2;
  28              		.loc 1 69 0
  29 0000 074A     		ldr	r2, .L2
  30 0002 1378     		ldrb	r3, [r2]
  31 0004 9B00     		lsl	r3, r3, #2
  32 0006 DBB2     		uxtb	r3, r3
  70:..\..\source/encoder.c ****     old_ab |= ( (a << 1) + b ) & 0x03;
  33              		.loc 1 70 0
  34 0008 4000     		lsl	r0, r0, #1
  35              	.LVL1:
  36 000a 0818     		add	r0, r1, r0
  37 000c 0321     		mov	r1, #3
  38              	.LVL2:
  39 000e 0140     		and	r1, r0
  40 0010 1943     		orr	r1, r3
  41 0012 1170     		strb	r1, [r2]
  71:..\..\source/encoder.c ****     
  72:..\..\source/encoder.c ****     return enc_states[( old_ab & 0x0f )];
  42              		.loc 1 72 0
ARM GAS  C:\Users\Tim\AppData\Local\Temp\ccipwujl.s 			page 3


  43 0014 0F20     		mov	r0, #15
  44 0016 0140     		and	r1, r0
  45 0018 024B     		ldr	r3, .L2+4
  46 001a 5856     		ldrsb	r0, [r3, r1]
  73:..\..\source/encoder.c **** }
  47              		.loc 1 73 0
  48              		@ sp needed
  49 001c 7047     		bx	lr
  50              	.L3:
  51 001e C046     		.align	2
  52              	.L2:
  53 0020 00000000 		.word	.LANCHOR0
  54 0024 00000000 		.word	.LANCHOR1
  55              		.cfi_endproc
  56              	.LFE36:
  57              		.size	CalcCount, .-CalcCount
  58              		.section	.text.Encoder_Interrupt_Handler,"ax",%progbits
  59              		.align	2
  60              		.global	Encoder_Interrupt_Handler
  61              		.code	16
  62              		.thumb_func
  63              		.type	Encoder_Interrupt_Handler, %function
  64              	Encoder_Interrupt_Handler:
  65              	.LFB37:
  74:..\..\source/encoder.c **** 
  75:..\..\source/encoder.c **** CY_ISR( Encoder_Interrupt_Handler )
  76:..\..\source/encoder.c **** /* An interrupt can occur on either pin A or B
  77:..\..\source/encoder.c ****    When an interrupt occurs, 
  78:..\..\source/encoder.c ****     - clear the interrupt
  79:..\..\source/encoder.c ****     - capture the state of both A and B
  80:..\..\source/encoder.c ****     - pass A/B state to calculate the count
  81:..\..\source/encoder.c ****  */
  82:..\..\source/encoder.c **** {       
  66              		.loc 1 82 0
  67              		.cfi_startproc
  68 0000 10B5     		push	{r4, lr}
  69              		.cfi_def_cfa_offset 8
  70              		.cfi_offset 4, -8
  71              		.cfi_offset 14, -4
  72              	.LVL3:
  83:..\..\source/encoder.c ****     uint8 pins = 0;
  84:..\..\source/encoder.c ****     uint8 a_pin = 0;
  85:..\..\source/encoder.c ****     uint8 b_pin = 0;
  86:..\..\source/encoder.c ****     
  87:..\..\source/encoder.c ****     pins = Encoder_Pins_ClearInterrupt();
  73              		.loc 1 87 0
  74 0002 FFF7FEFF 		bl	Encoder_Pins_ClearInterrupt
  75              	.LVL4:
  88:..\..\source/encoder.c ****     
  89:..\..\source/encoder.c ****     if (pins & (ENCODER_A | ENCODER_B) )
  76              		.loc 1 89 0
  77 0006 8307     		lsl	r3, r0, #30
  78 0008 0ED0     		beq	.L4
  90:..\..\source/encoder.c ****     {
  91:..\..\source/encoder.c ****         a_pin = Pins_Encoder_A_Read();
  79              		.loc 1 91 0
  80 000a FFF7FEFF 		bl	Encoder_Pins_Read
ARM GAS  C:\Users\Tim\AppData\Local\Temp\ccipwujl.s 			page 4


  81              	.LVL5:
  82 000e 0124     		mov	r4, #1
  83 0010 0440     		and	r4, r0
  84              	.LVL6:
  92:..\..\source/encoder.c ****         b_pin = Pins_Encoder_B_Read();
  85              		.loc 1 92 0
  86 0012 FFF7FEFF 		bl	Encoder_Pins_Read
  87              	.LVL7:
  88 0016 8107     		lsl	r1, r0, #30
  89 0018 C90F     		lsr	r1, r1, #31
  90              	.LVL8:
  93:..\..\source/encoder.c ****         
  94:..\..\source/encoder.c ****         enc_count += CalcCount(a_pin, b_pin);
  91              		.loc 1 94 0
  92 001a 201C     		mov	r0, r4
  93 001c FFF7FEFF 		bl	CalcCount
  94              	.LVL9:
  95 0020 024A     		ldr	r2, .L6
  96 0022 5368     		ldr	r3, [r2, #4]
  97 0024 C018     		add	r0, r0, r3
  98 0026 5060     		str	r0, [r2, #4]
  99              	.LVL10:
 100              	.L4:
  95:..\..\source/encoder.c ****     }
  96:..\..\source/encoder.c **** }
 101              		.loc 1 96 0
 102              		@ sp needed
 103 0028 10BD     		pop	{r4, pc}
 104              	.L7:
 105 002a C046     		.align	2
 106              	.L6:
 107 002c 00000000 		.word	.LANCHOR0
 108              		.cfi_endproc
 109              	.LFE37:
 110              		.size	Encoder_Interrupt_Handler, .-Encoder_Interrupt_Handler
 111              		.section	.text.Encoder_Init,"ax",%progbits
 112              		.align	2
 113              		.global	Encoder_Init
 114              		.code	16
 115              		.thumb_func
 116              		.type	Encoder_Init, %function
 117              	Encoder_Init:
 118              	.LFB38:
  97:..\..\source/encoder.c **** 
  98:..\..\source/encoder.c **** void Encoder_Init()
  99:..\..\source/encoder.c **** {
 119              		.loc 1 99 0
 120              		.cfi_startproc
 100:..\..\source/encoder.c ****     enc_count = 0;
 121              		.loc 1 100 0
 122 0000 034B     		ldr	r3, .L9
 123 0002 0022     		mov	r2, #0
 124 0004 5A60     		str	r2, [r3, #4]
 101:..\..\source/encoder.c ****     enc_velocity = 0;    
 125              		.loc 1 101 0
 126 0006 1A81     		strh	r2, [r3, #8]
 102:..\..\source/encoder.c ****     last_velocity_time = 0;
ARM GAS  C:\Users\Tim\AppData\Local\Temp\ccipwujl.s 			page 5


 127              		.loc 1 102 0
 128 0008 DA60     		str	r2, [r3, #12]
 103:..\..\source/encoder.c ****     last_enc_count = 0;
 129              		.loc 1 103 0
 130 000a 1A61     		str	r2, [r3, #16]
 104:..\..\source/encoder.c **** }
 131              		.loc 1 104 0
 132              		@ sp needed
 133 000c 7047     		bx	lr
 134              	.L10:
 135 000e C046     		.align	2
 136              	.L9:
 137 0010 00000000 		.word	.LANCHOR0
 138              		.cfi_endproc
 139              	.LFE38:
 140              		.size	Encoder_Init, .-Encoder_Init
 141              		.section	.text.Encoder_Start,"ax",%progbits
 142              		.align	2
 143              		.global	Encoder_Start
 144              		.code	16
 145              		.thumb_func
 146              		.type	Encoder_Start, %function
 147              	Encoder_Start:
 148              	.LFB39:
 105:..\..\source/encoder.c **** 
 106:..\..\source/encoder.c **** void Encoder_Start()
 107:..\..\source/encoder.c **** {
 149              		.loc 1 107 0
 150              		.cfi_startproc
 151 0000 08B5     		push	{r3, lr}
 152              		.cfi_def_cfa_offset 8
 153              		.cfi_offset 3, -8
 154              		.cfi_offset 14, -4
 108:..\..\source/encoder.c ****     Encoder_Intr_StartEx( Encoder_Interrupt_Handler );    
 155              		.loc 1 108 0
 156 0002 0248     		ldr	r0, .L12
 157 0004 FFF7FEFF 		bl	Encoder_Intr_StartEx
 158              	.LVL11:
 109:..\..\source/encoder.c **** }
 159              		.loc 1 109 0
 160              		@ sp needed
 161 0008 08BD     		pop	{r3, pc}
 162              	.L13:
 163 000a C046     		.align	2
 164              	.L12:
 165 000c 00000000 		.word	Encoder_Interrupt_Handler
 166              		.cfi_endproc
 167              	.LFE39:
 168              		.size	Encoder_Start, .-Encoder_Start
 169              		.section	.text.Encoder_GetVelocity,"ax",%progbits
 170              		.align	2
 171              		.global	Encoder_GetVelocity
 172              		.code	16
 173              		.thumb_func
 174              		.type	Encoder_GetVelocity, %function
 175              	Encoder_GetVelocity:
 176              	.LFB40:
ARM GAS  C:\Users\Tim\AppData\Local\Temp\ccipwujl.s 			page 6


 110:..\..\source/encoder.c **** 
 111:..\..\source/encoder.c **** int16 Encoder_GetVelocity()
 112:..\..\source/encoder.c **** {
 177              		.loc 1 112 0
 178              		.cfi_startproc
 113:..\..\source/encoder.c ****     return enc_velocity;
 179              		.loc 1 113 0
 180 0000 014B     		ldr	r3, .L15
 181 0002 1889     		ldrh	r0, [r3, #8]
 182 0004 00B2     		sxth	r0, r0
 114:..\..\source/encoder.c **** }
 183              		.loc 1 114 0
 184              		@ sp needed
 185 0006 7047     		bx	lr
 186              	.L16:
 187              		.align	2
 188              	.L15:
 189 0008 00000000 		.word	.LANCHOR0
 190              		.cfi_endproc
 191              	.LFE40:
 192              		.size	Encoder_GetVelocity, .-Encoder_GetVelocity
 193              		.section	.text.Encoder_GetCount,"ax",%progbits
 194              		.align	2
 195              		.global	Encoder_GetCount
 196              		.code	16
 197              		.thumb_func
 198              		.type	Encoder_GetCount, %function
 199              	Encoder_GetCount:
 200              	.LFB41:
 115:..\..\source/encoder.c **** 
 116:..\..\source/encoder.c **** int32 Encoder_GetCount()
 117:..\..\source/encoder.c **** {
 201              		.loc 1 117 0
 202              		.cfi_startproc
 118:..\..\source/encoder.c ****     return enc_count;
 203              		.loc 1 118 0
 204 0000 014B     		ldr	r3, .L18
 205 0002 5868     		ldr	r0, [r3, #4]
 119:..\..\source/encoder.c **** }
 206              		.loc 1 119 0
 207              		@ sp needed
 208 0004 7047     		bx	lr
 209              	.L19:
 210 0006 C046     		.align	2
 211              	.L18:
 212 0008 00000000 		.word	.LANCHOR0
 213              		.cfi_endproc
 214              	.LFE41:
 215              		.size	Encoder_GetCount, .-Encoder_GetCount
 216              		.section	.text.Encoder_Reset,"ax",%progbits
 217              		.align	2
 218              		.global	Encoder_Reset
 219              		.code	16
 220              		.thumb_func
 221              		.type	Encoder_Reset, %function
 222              	Encoder_Reset:
 223              	.LFB42:
ARM GAS  C:\Users\Tim\AppData\Local\Temp\ccipwujl.s 			page 7


 120:..\..\source/encoder.c **** 
 121:..\..\source/encoder.c **** void Encoder_Reset()
 122:..\..\source/encoder.c **** {
 224              		.loc 1 122 0
 225              		.cfi_startproc
 226 0000 08B5     		push	{r3, lr}
 227              		.cfi_def_cfa_offset 8
 228              		.cfi_offset 3, -8
 229              		.cfi_offset 14, -4
 123:..\..\source/encoder.c ****     Encoder_Intr_Disable();
 230              		.loc 1 123 0
 231 0002 FFF7FEFF 		bl	Encoder_Intr_Disable
 232              	.LVL12:
 124:..\..\source/encoder.c ****     enc_count = 0;
 233              		.loc 1 124 0
 234 0006 0022     		mov	r2, #0
 235 0008 024B     		ldr	r3, .L21
 236 000a 5A60     		str	r2, [r3, #4]
 125:..\..\source/encoder.c ****     Encoder_Intr_Enable();
 237              		.loc 1 125 0
 238 000c FFF7FEFF 		bl	Encoder_Intr_Enable
 239              	.LVL13:
 126:..\..\source/encoder.c **** }
 240              		.loc 1 126 0
 241              		@ sp needed
 242 0010 08BD     		pop	{r3, pc}
 243              	.L22:
 244 0012 C046     		.align	2
 245              	.L21:
 246 0014 00000000 		.word	.LANCHOR0
 247              		.cfi_endproc
 248              	.LFE42:
 249              		.size	Encoder_Reset, .-Encoder_Reset
 250              		.global	__aeabi_idiv
 251              		.section	.text.Encoder_Update,"ax",%progbits
 252              		.align	2
 253              		.global	Encoder_Update
 254              		.code	16
 255              		.thumb_func
 256              		.type	Encoder_Update, %function
 257              	Encoder_Update:
 258              	.LFB43:
 127:..\..\source/encoder.c **** 
 128:..\..\source/encoder.c **** void Encoder_Update()
 129:..\..\source/encoder.c **** /* This routine is called as fast as the main loop can run, but we will only 
 130:..\..\source/encoder.c ****    update the velocity at a specific sample rate
 131:..\..\source/encoder.c ****  */
 132:..\..\source/encoder.c **** {
 259              		.loc 1 132 0
 260              		.cfi_startproc
 261 0000 10B5     		push	{r4, lr}
 262              		.cfi_def_cfa_offset 8
 263              		.cfi_offset 4, -8
 264              		.cfi_offset 14, -4
 133:..\..\source/encoder.c ****     int16 counts_per_second;
 134:..\..\source/encoder.c ****     
 135:..\..\source/encoder.c ****     if (DELTA_TIME(millis(), last_velocity_time, SAMPLE_PERIOD))
ARM GAS  C:\Users\Tim\AppData\Local\Temp\ccipwujl.s 			page 8


 265              		.loc 1 135 0
 266 0002 FFF7FEFF 		bl	millis
 267              	.LVL14:
 268 0006 0D4B     		ldr	r3, .L25
 269 0008 DB68     		ldr	r3, [r3, #12]
 270 000a C01A     		sub	r0, r0, r3
 271 000c 3228     		cmp	r0, #50
 272 000e 13D9     		bls	.L23
 273              	.LBB2:
 136:..\..\source/encoder.c ****     {           
 137:..\..\source/encoder.c ****         last_velocity_time = millis();
 274              		.loc 1 137 0
 275 0010 FFF7FEFF 		bl	millis
 276              	.LVL15:
 277 0014 094C     		ldr	r4, .L25
 278 0016 E060     		str	r0, [r4, #12]
 138:..\..\source/encoder.c ****         
 139:..\..\source/encoder.c ****         int32 delta_count = enc_count - last_enc_count;
 279              		.loc 1 139 0
 280 0018 6368     		ldr	r3, [r4, #4]
 281 001a 2069     		ldr	r0, [r4, #16]
 282 001c 181A     		sub	r0, r3, r0
 283              	.LVL16:
 140:..\..\source/encoder.c ****         counts_per_second = delta_count * MILLIS_PER_SECOND / SAMPLE_PERIOD;        
 284              		.loc 1 140 0
 285 001e FA23     		mov	r3, #250
 286 0020 9B00     		lsl	r3, r3, #2
 287 0022 5843     		mul	r0, r3
 288              	.LVL17:
 289 0024 3221     		mov	r1, #50
 290 0026 FFF7FEFF 		bl	__aeabi_idiv
 291              	.LVL18:
 141:..\..\source/encoder.c ****         enc_velocity = MILLIMETERS_PER_COUNT * counts_per_second;
 292              		.loc 1 141 0
 293 002a 4300     		lsl	r3, r0, #1
 294 002c C018     		add	r0, r0, r3
 295              	.LVL19:
 296 002e 4300     		lsl	r3, r0, #1
 297 0030 9BB2     		uxth	r3, r3
 298 0032 2381     		strh	r3, [r4, #8]
 142:..\..\source/encoder.c ****         last_enc_count = enc_count;        
 299              		.loc 1 142 0
 300 0034 6368     		ldr	r3, [r4, #4]
 301 0036 2361     		str	r3, [r4, #16]
 302              	.L23:
 303              	.LBE2:
 143:..\..\source/encoder.c ****     }
 144:..\..\source/encoder.c **** }
 304              		.loc 1 144 0
 305              		@ sp needed
 306 0038 10BD     		pop	{r4, pc}
 307              	.L26:
 308 003a C046     		.align	2
 309              	.L25:
 310 003c 00000000 		.word	.LANCHOR0
 311              		.cfi_endproc
 312              	.LFE43:
ARM GAS  C:\Users\Tim\AppData\Local\Temp\ccipwujl.s 			page 9


 313              		.size	Encoder_Update, .-Encoder_Update
 314              		.comm	formatted_string,256,4
 315              		.section	.rodata
 316              		.align	2
 317              		.set	.LANCHOR1,. + 0
 318              		.type	enc_states, %object
 319              		.size	enc_states, 16
 320              	enc_states:
 321 0000 00       		.byte	0
 322 0001 FF       		.byte	-1
 323 0002 01       		.byte	1
 324 0003 00       		.byte	0
 325 0004 01       		.byte	1
 326 0005 00       		.byte	0
 327 0006 00       		.byte	0
 328 0007 FF       		.byte	-1
 329 0008 FF       		.byte	-1
 330 0009 00       		.byte	0
 331 000a 00       		.byte	0
 332 000b 01       		.byte	1
 333 000c 00       		.byte	0
 334 000d 01       		.byte	1
 335 000e FF       		.byte	-1
 336 000f 00       		.byte	0
 337              		.bss
 338              		.align	2
 339              		.set	.LANCHOR0,. + 0
 340              		.type	old_ab, %object
 341              		.size	old_ab, 1
 342              	old_ab:
 343 0000 00       		.space	1
 344 0001 000000   		.space	3
 345              		.type	enc_count, %object
 346              		.size	enc_count, 4
 347              	enc_count:
 348 0004 00000000 		.space	4
 349              		.type	enc_velocity, %object
 350              		.size	enc_velocity, 2
 351              	enc_velocity:
 352 0008 0000     		.space	2
 353 000a 0000     		.space	2
 354              		.type	last_velocity_time, %object
 355              		.size	last_velocity_time, 4
 356              	last_velocity_time:
 357 000c 00000000 		.space	4
 358              		.type	last_enc_count, %object
 359              		.size	last_enc_count, 4
 360              	last_enc_count:
 361 0010 00000000 		.space	4
 362              		.text
 363              	.Letext0:
 364              		.file 2 "c:\\program files (x86)\\cypress\\psoc creator\\3.3\\psoc creator\\import\\gnu\\arm\\4.9.
 365              		.file 3 "c:\\program files (x86)\\cypress\\psoc creator\\3.3\\psoc creator\\import\\gnu\\arm\\4.9.
 366              		.file 4 "Generated_Source\\PSoC4/cytypes.h"
 367              		.file 5 "Generated_Source\\PSoC4/Encoder_Pins.h"
 368              		.file 6 "Generated_Source\\PSoC4/Encoder_Intr.h"
 369              		.file 7 "..\\..\\source\\debug.h"
ARM GAS  C:\Users\Tim\AppData\Local\Temp\ccipwujl.s 			page 10


 370              		.file 8 "..\\..\\source\\time.h"