ARM GAS  C:\Users\Tim\AppData\Local\Temp\cchojxf5.s 			page 1


   1              		.cpu cortex-m0
   2              		.fpu softvfp
   3              		.eabi_attribute 20, 1
   4              		.eabi_attribute 21, 1
   5              		.eabi_attribute 23, 3
   6              		.eabi_attribute 24, 1
   7              		.eabi_attribute 25, 1
   8              		.eabi_attribute 26, 1
   9              		.eabi_attribute 30, 1
  10              		.eabi_attribute 34, 0
  11              		.eabi_attribute 18, 4
  12              		.code	16
  13              		.file	"infrared.c"
  14              		.text
  15              	.Ltext0:
  16              		.cfi_sections	.debug_frame
  17              		.section	.text.Infrared_Init,"ax",%progbits
  18              		.align	2
  19              		.global	Infrared_Init
  20              		.code	16
  21              		.thumb_func
  22              		.type	Infrared_Init, %function
  23              	Infrared_Init:
  24              	.LFB36:
  25              		.file 1 "..\\..\\source\\infrared.c"
   1:..\..\source/infrared.c **** /* ========================================
   2:..\..\source/infrared.c ****  *
   3:..\..\source/infrared.c ****  * Copyright YOUR COMPANY, THE YEAR
   4:..\..\source/infrared.c ****  * All Rights Reserved
   5:..\..\source/infrared.c ****  * UNPUBLISHED, LICENSED SOFTWARE.
   6:..\..\source/infrared.c ****  *
   7:..\..\source/infrared.c ****  * CONFIDENTIAL AND PROPRIETARY INFORMATION
   8:..\..\source/infrared.c ****  * WHICH IS THE PROPERTY OF your company.
   9:..\..\source/infrared.c ****  *
  10:..\..\source/infrared.c ****  * ========================================
  11:..\..\source/infrared.c **** */
  12:..\..\source/infrared.c **** 
  13:..\..\source/infrared.c **** #include <math.h>
  14:..\..\source/infrared.c **** #include <stdio.h>
  15:..\..\source/infrared.c **** #include "infrared.h"
  16:..\..\source/infrared.c **** #include "debug.h"
  17:..\..\source/infrared.c **** #include "time.h"
  18:..\..\source/infrared.c **** #include "i2c.h"
  19:..\..\source/infrared.c **** #include "utils.h"
  20:..\..\source/infrared.c **** #include "hwconfig.h"
  21:..\..\source/infrared.c **** 
  22:..\..\source/infrared.c **** /* The Sharp IR sensors have a range of 10 to 80 cm.  Working backward, this limits the ADC values 
  23:..\..\source/infrared.c **** 
  24:..\..\source/infrared.c **** ADC    Voltage        Pow	       cm	        mm
  25:..\..\source/infrared.c **** 327	 0.399169922  2.875203044  80.10315682  801.0315682
  26:..\..\source/infrared.c **** 350	 0.427246094  2.659011307  74.08005503  740.8005503
  27:..\..\source/infrared.c **** 375	 0.457763672  2.456192932  68.42953508  684.2953508
  28:..\..\source/infrared.c **** ...
  29:..\..\source/infrared.c **** 1950 2.380371094  0.368857512  10.27637027  102.7637027
  30:..\..\source/infrared.c **** 1995 2.435302734  0.359305694  10.01025665  100.1025665
  31:..\..\source/infrared.c ****  */
  32:..\..\source/infrared.c **** #define ADC_MIN_VALUE (327)
ARM GAS  C:\Users\Tim\AppData\Local\Temp\cchojxf5.s 			page 2


  33:..\..\source/infrared.c **** #define ADC_MAX_VALUE (1995)
  34:..\..\source/infrared.c **** 
  35:..\..\source/infrared.c **** /* External voltage reference */
  36:..\..\source/infrared.c **** #define ADC_REFERENCE (2.5)
  37:..\..\source/infrared.c **** /* ADC range is 2 * Vref */
  38:..\..\source/infrared.c **** #define ADC_FULL_RANGE (ADC_REFERENCE * 2)
  39:..\..\source/infrared.c **** /* ADC 16-bit resolution */
  40:..\..\source/infrared.c **** #define ADC_RESOLUTION (4096.0)
  41:..\..\source/infrared.c **** /* Interpolation equation and constants taken from here: 
  42:..\..\source/infrared.c ****        https://www.tindie.com/products/upgradeindustries/sharp-10-80cm-infrared-distance-sensor-gp2
  43:..\..\source/infrared.c ****  */
  44:..\..\source/infrared.c **** #define SHARP_IR_SENSOR_INTERPOLATION_CONST_1 (27.86)
  45:..\..\source/infrared.c **** #define SHARP_IR_SENSOR_INTERPOLATION_CONST_2 (-1.15)
  46:..\..\source/infrared.c **** 
  47:..\..\source/infrared.c **** /* ADC measurements are taken continuously.  Sampling (or reporting) is done every 100ms */
  48:..\..\source/infrared.c **** #define SAMPLE_PERIOD (100) /* ms */
  49:..\..\source/infrared.c **** 
  50:..\..\source/infrared.c **** static uint32 last_time;
  51:..\..\source/infrared.c **** 
  52:..\..\source/infrared.c **** void Infrared_Init()
  53:..\..\source/infrared.c **** {
  26              		.loc 1 53 0
  27              		.cfi_startproc
  54:..\..\source/infrared.c ****     last_time = 0;
  28              		.loc 1 54 0
  29 0000 0022     		mov	r2, #0
  30 0002 014B     		ldr	r3, .L2
  31 0004 1A60     		str	r2, [r3]
  55:..\..\source/infrared.c **** }
  32              		.loc 1 55 0
  33              		@ sp needed
  34 0006 7047     		bx	lr
  35              	.L3:
  36              		.align	2
  37              	.L2:
  38 0008 00000000 		.word	.LANCHOR0
  39              		.cfi_endproc
  40              	.LFE36:
  41              		.size	Infrared_Init, .-Infrared_Init
  42              		.section	.text.Infrared_Start,"ax",%progbits
  43              		.align	2
  44              		.global	Infrared_Start
  45              		.code	16
  46              		.thumb_func
  47              		.type	Infrared_Start, %function
  48              	Infrared_Start:
  49              	.LFB37:
  56:..\..\source/infrared.c **** 
  57:..\..\source/infrared.c **** void Infrared_Start()
  58:..\..\source/infrared.c **** {
  50              		.loc 1 58 0
  51              		.cfi_startproc
  52 0000 08B5     		push	{r3, lr}
  53              		.cfi_def_cfa_offset 8
  54              		.cfi_offset 3, -8
  55              		.cfi_offset 14, -4
  59:..\..\source/infrared.c ****     ADC_Infrared_Start();
ARM GAS  C:\Users\Tim\AppData\Local\Temp\cchojxf5.s 			page 3


  56              		.loc 1 59 0
  57 0002 FFF7FEFF 		bl	ADC_Infrared_Start
  58              	.LVL0:
  60:..\..\source/infrared.c **** }
  59              		.loc 1 60 0
  60              		@ sp needed
  61 0006 08BD     		pop	{r3, pc}
  62              		.cfi_endproc
  63              	.LFE37:
  64              		.size	Infrared_Start, .-Infrared_Start
  65              		.global	__aeabi_i2d
  66              		.global	__aeabi_dmul
  67              		.global	__aeabi_d2f
  68              		.global	__aeabi_f2d
  69              		.global	__aeabi_f2uiz
  70              		.section	.rodata.cst2,"aM",%progbits,2
  71              		.align	1
  72              	.LC2:
  73 0000 4701     		.short	327
  74              		.section	.text.Infrared_Measure,"ax",%progbits
  75              		.align	2
  76              		.global	Infrared_Measure
  77              		.code	16
  78              		.thumb_func
  79              		.type	Infrared_Measure, %function
  80              	Infrared_Measure:
  81              	.LFB38:
  61:..\..\source/infrared.c **** 
  62:..\..\source/infrared.c **** void Infrared_Measure()
  63:..\..\source/infrared.c **** {
  82              		.loc 1 63 0
  83              		.cfi_startproc
  84 0000 10B5     		push	{r4, lr}
  85              		.cfi_def_cfa_offset 8
  86              		.cfi_offset 4, -8
  87              		.cfi_offset 14, -4
  64:..\..\source/infrared.c ****     int8 ii;
  65:..\..\source/infrared.c ****     uint16 result;
  66:..\..\source/infrared.c ****     float voltage;
  67:..\..\source/infrared.c ****     float distance;
  68:..\..\source/infrared.c ****     
  69:..\..\source/infrared.c ****     ADC_Infrared_StartConvert();
  88              		.loc 1 69 0
  89 0002 FFF7FEFF 		bl	ADC_Infrared_StartConvert
  90              	.LVL1:
  70:..\..\source/infrared.c ****     ADC_Infrared_IsEndConversion(ADC_Infrared_WAIT_FOR_RESULT);
  91              		.loc 1 70 0
  92 0006 0220     		mov	r0, #2
  93 0008 FFF7FEFF 		bl	ADC_Infrared_IsEndConversion
  94              	.LVL2:
  71:..\..\source/infrared.c **** 
  72:..\..\source/infrared.c ****     if (millis() - last_time > SAMPLE_PERIOD)
  95              		.loc 1 72 0
  96 000c FFF7FEFF 		bl	millis
  97              	.LVL3:
  98 0010 214B     		ldr	r3, .L12
  99 0012 1B68     		ldr	r3, [r3]
ARM GAS  C:\Users\Tim\AppData\Local\Temp\cchojxf5.s 			page 4


 100 0014 C01A     		sub	r0, r0, r3
 101 0016 6428     		cmp	r0, #100
 102 0018 3DD9     		bls	.L5
  73:..\..\source/infrared.c ****     {
  74:..\..\source/infrared.c ****         last_time = millis();
 103              		.loc 1 74 0
 104 001a FFF7FEFF 		bl	millis
 105              	.LVL4:
 106 001e 1E4B     		ldr	r3, .L12
 107 0020 1860     		str	r0, [r3]
 108              	.LVL5:
  75:..\..\source/infrared.c ****         for (ii = 0; ii < NUM_INFRARED_SENSORS; ++ii)
 109              		.loc 1 75 0
 110 0022 0024     		mov	r4, #0
 111 0024 34E0     		b	.L7
 112              	.LVL6:
 113              	.L10:
  76:..\..\source/infrared.c ****         {
  77:..\..\source/infrared.c ****             result = ADC_Infrared_GetResult16(ii);
 114              		.loc 1 77 0
 115 0026 60B2     		sxtb	r0, r4
 116 0028 FFF7FEFF 		bl	ADC_Infrared_GetResult16
 117              	.LVL7:
 118 002c 80B2     		uxth	r0, r0
 119              	.LVL8:
  78:..\..\source/infrared.c ****             result = constrain(result, ADC_MIN_VALUE, ADC_MAX_VALUE);
 120              		.loc 1 78 0
 121 002e 1B4B     		ldr	r3, .L12+4
 122 0030 C318     		add	r3, r0, r3
 123 0032 9BB2     		uxth	r3, r3
 124 0034 1A4A     		ldr	r2, .L12+8
 125 0036 9342     		cmp	r3, r2
 126 0038 08D9     		bls	.L11
 127              		.loc 1 78 0 is_stmt 0 discriminator 1
 128 003a 031C     		add	r3, r0, #0
 129 003c 4822     		mov	r2, #72
 130 003e FF32     		add	r2, r2, #255
 131 0040 9042     		cmp	r0, r2
 132 0042 01D2     		bcs	.L9
 133 0044 174B     		ldr	r3, .L12+12
 134 0046 1B88     		ldrh	r3, [r3]
 135              	.L9:
 136 0048 98B2     		uxth	r0, r3
 137              	.LVL9:
 138 004a 00E0     		b	.L8
 139              	.LVL10:
 140              	.L11:
 141              		.loc 1 78 0
 142 004c 1648     		ldr	r0, .L12+16
 143              	.LVL11:
 144              	.L8:
  79:..\..\source/infrared.c ****             voltage = (result * ADC_FULL_RANGE) / ADC_RESOLUTION;
 145              		.loc 1 79 0 is_stmt 1 discriminator 4
 146 004e FFF7FEFF 		bl	__aeabi_i2d
 147              	.LVL12:
 148 0052 0022     		mov	r2, #0
 149 0054 154B     		ldr	r3, .L12+20
ARM GAS  C:\Users\Tim\AppData\Local\Temp\cchojxf5.s 			page 5


 150 0056 FFF7FEFF 		bl	__aeabi_dmul
 151              	.LVL13:
 152 005a 0022     		mov	r2, #0
 153 005c 144B     		ldr	r3, .L12+24
 154 005e FFF7FEFF 		bl	__aeabi_dmul
 155              	.LVL14:
 156 0062 FFF7FEFF 		bl	__aeabi_d2f
 157              	.LVL15:
  80:..\..\source/infrared.c ****             distance = SHARP_IR_SENSOR_INTERPOLATION_CONST_1 * pow(voltage, SHARP_IR_SENSOR_INTERPO
 158              		.loc 1 80 0 discriminator 4
 159 0066 FFF7FEFF 		bl	__aeabi_f2d
 160              	.LVL16:
 161 006a 124A     		ldr	r2, .L12+28
 162 006c 124B     		ldr	r3, .L12+32
 163 006e FFF7FEFF 		bl	pow
 164              	.LVL17:
 165 0072 124A     		ldr	r2, .L12+36
 166 0074 124B     		ldr	r3, .L12+40
 167 0076 FFF7FEFF 		bl	__aeabi_dmul
 168              	.LVL18:
 169 007a FFF7FEFF 		bl	__aeabi_d2f
 170              	.LVL19:
  81:..\..\source/infrared.c ****             I2c_WriteInfraredDistance(ii, distance);
 171              		.loc 1 81 0 discriminator 4
 172 007e E4B2     		uxtb	r4, r4
 173 0080 FFF7FEFF 		bl	__aeabi_f2uiz
 174              	.LVL20:
 175 0084 C1B2     		uxtb	r1, r0
 176 0086 201C     		mov	r0, r4
 177 0088 FFF7FEFF 		bl	I2c_WriteInfraredDistance
 178              	.LVL21:
  75:..\..\source/infrared.c ****         {
 179              		.loc 1 75 0 discriminator 4
 180 008c 0134     		add	r4, r4, #1
 181              	.LVL22:
 182 008e E4B2     		uxtb	r4, r4
 183              	.LVL23:
 184              	.L7:
  75:..\..\source/infrared.c ****         {
 185              		.loc 1 75 0 is_stmt 0 discriminator 2
 186 0090 63B2     		sxtb	r3, r4
 187 0092 032B     		cmp	r3, #3
 188 0094 C7DD     		ble	.L10
 189              	.LVL24:
 190              	.L5:
  82:..\..\source/infrared.c ****         }
  83:..\..\source/infrared.c ****     }
  84:..\..\source/infrared.c **** }
 191              		.loc 1 84 0 is_stmt 1
 192              		@ sp needed
 193 0096 10BD     		pop	{r4, pc}
 194              	.L13:
 195              		.align	2
 196              	.L12:
 197 0098 00000000 		.word	.LANCHOR0
 198 009c 35F8FFFF 		.word	-1995
 199 00a0 34F80000 		.word	63540
ARM GAS  C:\Users\Tim\AppData\Local\Temp\cchojxf5.s 			page 6


 200 00a4 00000000 		.word	.LC2
 201 00a8 CB070000 		.word	1995
 202 00ac 00001440 		.word	1075052544
 203 00b0 0000303F 		.word	1060110336
 204 00b4 66666666 		.word	1717986918
 205 00b8 6666F2BF 		.word	-1074633114
 206 00bc 5C8FC2F5 		.word	-171798692
 207 00c0 28DC3B40 		.word	1077664808
 208              		.cfi_endproc
 209              	.LFE38:
 210              		.size	Infrared_Measure, .-Infrared_Measure
 211              		.section	.rodata.cst2
 212              		.align	1
 213              	.LC10:
 214 0002 4701     		.short	327
 215              		.section	.text.Infrared_Test,"ax",%progbits
 216              		.align	2
 217              		.global	Infrared_Test
 218              		.code	16
 219              		.thumb_func
 220              		.type	Infrared_Test, %function
 221              	Infrared_Test:
 222              	.LFB39:
  85:..\..\source/infrared.c **** 
  86:..\..\source/infrared.c **** void Infrared_Test()
  87:..\..\source/infrared.c **** {
 223              		.loc 1 87 0
 224              		.cfi_startproc
 225 0000 F0B5     		push	{r4, r5, r6, r7, lr}
 226              		.cfi_def_cfa_offset 20
 227              		.cfi_offset 4, -20
 228              		.cfi_offset 5, -16
 229              		.cfi_offset 6, -12
 230              		.cfi_offset 7, -8
 231              		.cfi_offset 14, -4
 232 0002 87B0     		sub	sp, sp, #28
 233              		.cfi_def_cfa_offset 48
  88:..\..\source/infrared.c ****     int8 ii;
  89:..\..\source/infrared.c ****     uint16 result;
  90:..\..\source/infrared.c ****     float voltage;
  91:..\..\source/infrared.c ****     float distance;
  92:..\..\source/infrared.c ****     static uint32 last_time;
  93:..\..\source/infrared.c ****     
  94:..\..\source/infrared.c ****     
  95:..\..\source/infrared.c ****     ADC_Infrared_StartConvert();
 234              		.loc 1 95 0
 235 0004 FFF7FEFF 		bl	ADC_Infrared_StartConvert
 236              	.LVL25:
  96:..\..\source/infrared.c ****     ADC_Infrared_IsEndConversion(ADC_Infrared_WAIT_FOR_RESULT);
 237              		.loc 1 96 0
 238 0008 0220     		mov	r0, #2
 239 000a FFF7FEFF 		bl	ADC_Infrared_IsEndConversion
 240              	.LVL26:
  97:..\..\source/infrared.c **** 
  98:..\..\source/infrared.c ****     if (millis() - last_time > 500)
 241              		.loc 1 98 0
 242 000e FFF7FEFF 		bl	millis
ARM GAS  C:\Users\Tim\AppData\Local\Temp\cchojxf5.s 			page 7


 243              	.LVL27:
 244 0012 324B     		ldr	r3, .L21
 245 0014 5B68     		ldr	r3, [r3, #4]
 246 0016 C01A     		sub	r0, r0, r3
 247 0018 FA23     		mov	r3, #250
 248 001a 5B00     		lsl	r3, r3, #1
 249 001c 9842     		cmp	r0, r3
 250 001e 5AD9     		bls	.L14
  99:..\..\source/infrared.c ****     {
 100:..\..\source/infrared.c ****         last_time = millis();
 251              		.loc 1 100 0
 252 0020 FFF7FEFF 		bl	millis
 253              	.LVL28:
 254 0024 2D4B     		ldr	r3, .L21
 255 0026 5860     		str	r0, [r3, #4]
 256              	.LVL29:
 101:..\..\source/infrared.c ****         for (ii = 0; ii < 1; ++ii)
 257              		.loc 1 101 0
 258 0028 0024     		mov	r4, #0
 259 002a 51E0     		b	.L16
 260              	.LVL30:
 261              	.L19:
 102:..\..\source/infrared.c ****         {
 103:..\..\source/infrared.c ****             result = ADC_Infrared_GetResult16(ii);
 262              		.loc 1 103 0
 263 002c 60B2     		sxtb	r0, r4
 264 002e FFF7FEFF 		bl	ADC_Infrared_GetResult16
 265              	.LVL31:
 266 0032 80B2     		uxth	r0, r0
 267              	.LVL32:
 104:..\..\source/infrared.c ****             result = constrain(result, 327, 1995);
 268              		.loc 1 104 0
 269 0034 2A4B     		ldr	r3, .L21+4
 270 0036 C318     		add	r3, r0, r3
 271 0038 9BB2     		uxth	r3, r3
 272 003a 2A4A     		ldr	r2, .L21+8
 273 003c 9342     		cmp	r3, r2
 274 003e 08D9     		bls	.L20
 275              		.loc 1 104 0 is_stmt 0 discriminator 1
 276 0040 061C     		add	r6, r0, #0
 277 0042 4823     		mov	r3, #72
 278 0044 FF33     		add	r3, r3, #255
 279 0046 9842     		cmp	r0, r3
 280 0048 01D2     		bcs	.L18
 281 004a 274B     		ldr	r3, .L21+12
 282 004c 1E88     		ldrh	r6, [r3]
 283              	.L18:
 284 004e B6B2     		uxth	r6, r6
 285 0050 00E0     		b	.L17
 286              	.L20:
 287              		.loc 1 104 0
 288 0052 264E     		ldr	r6, .L21+16
 289              	.L17:
 290              	.LVL33:
 105:..\..\source/infrared.c ****             
 106:..\..\source/infrared.c ****             voltage = (result * 5.0) / 4096.0;
 291              		.loc 1 106 0 is_stmt 1 discriminator 4
ARM GAS  C:\Users\Tim\AppData\Local\Temp\cchojxf5.s 			page 8


 292 0054 301C     		mov	r0, r6
 293 0056 FFF7FEFF 		bl	__aeabi_i2d
 294              	.LVL34:
 295 005a 0022     		mov	r2, #0
 296 005c 244B     		ldr	r3, .L21+20
 297 005e FFF7FEFF 		bl	__aeabi_dmul
 298              	.LVL35:
 299 0062 0022     		mov	r2, #0
 300 0064 234B     		ldr	r3, .L21+24
 301 0066 FFF7FEFF 		bl	__aeabi_dmul
 302              	.LVL36:
 303 006a FFF7FEFF 		bl	__aeabi_d2f
 304              	.LVL37:
 305 006e 071C     		add	r7, r0, #0
 306              	.LVL38:
 107:..\..\source/infrared.c ****             distance = 27.86 * pow(voltage, -1.15);
 307              		.loc 1 107 0 discriminator 4
 308 0070 FFF7FEFF 		bl	__aeabi_f2d
 309              	.LVL39:
 310 0074 204A     		ldr	r2, .L21+28
 311 0076 214B     		ldr	r3, .L21+32
 312 0078 FFF7FEFF 		bl	pow
 313              	.LVL40:
 314 007c 204A     		ldr	r2, .L21+36
 315 007e 214B     		ldr	r3, .L21+40
 316 0080 FFF7FEFF 		bl	__aeabi_dmul
 317              	.LVL41:
 318 0084 FFF7FEFF 		bl	__aeabi_d2f
 319              	.LVL42:
 320 0088 051C     		add	r5, r0, #0
 321              	.LVL43:
 108:..\..\source/infrared.c ****             COMMS_DEBUG_PRINT(0, "%d:%d,%d,%d\n\r", ii, result, (uint16)voltage*100, (uint16)distan
 322              		.loc 1 108 0 discriminator 4
 323 008a 381C     		add	r0, r7, #0
 324              	.LVL44:
 325 008c FFF7FEFF 		bl	__aeabi_f2uiz
 326              	.LVL45:
 327 0090 87B2     		uxth	r7, r0
 328              	.LVL46:
 329 0092 281C     		add	r0, r5, #0
 330 0094 FFF7FEFF 		bl	__aeabi_f2uiz
 331              	.LVL47:
 332 0098 83B2     		uxth	r3, r0
 333 009a 1B4D     		ldr	r5, .L21+44
 334              	.LVL48:
 335 009c 1B4A     		ldr	r2, .L21+48
 336 009e 0092     		str	r2, [sp]
 337 00a0 6C22     		mov	r2, #108
 338 00a2 0192     		str	r2, [sp, #4]
 339 00a4 62B2     		sxtb	r2, r4
 340 00a6 0292     		str	r2, [sp, #8]
 341 00a8 0396     		str	r6, [sp, #12]
 342 00aa 6420     		mov	r0, #100
 343 00ac 7843     		mul	r0, r7
 344 00ae 0490     		str	r0, [sp, #16]
 345 00b0 9800     		lsl	r0, r3, #2
 346 00b2 C018     		add	r0, r0, r3
ARM GAS  C:\Users\Tim\AppData\Local\Temp\cchojxf5.s 			page 9


 347 00b4 4000     		lsl	r0, r0, #1
 348 00b6 0590     		str	r0, [sp, #20]
 349 00b8 281C     		mov	r0, r5
 350 00ba 8021     		mov	r1, #128
 351 00bc 4900     		lsl	r1, r1, #1
 352 00be 144A     		ldr	r2, .L21+52
 353 00c0 144B     		ldr	r3, .L21+56
 354 00c2 FFF7FEFF 		bl	snprintf
 355              	.LVL49:
 356 00c6 281C     		mov	r0, r5
 357 00c8 FFF7FEFF 		bl	UARTCOMMS_UartPutString
 358              	.LVL50:
 101:..\..\source/infrared.c ****         {
 359              		.loc 1 101 0 discriminator 4
 360 00cc 0134     		add	r4, r4, #1
 361              	.LVL51:
 362 00ce E4B2     		uxtb	r4, r4
 363              	.LVL52:
 364              	.L16:
 101:..\..\source/infrared.c ****         {
 365              		.loc 1 101 0 is_stmt 0 discriminator 1
 366 00d0 63B2     		sxtb	r3, r4
 367 00d2 002B     		cmp	r3, #0
 368 00d4 AADD     		ble	.L19
 369              	.LVL53:
 370              	.L14:
 109:..\..\source/infrared.c ****         }
 110:..\..\source/infrared.c ****     }
 111:..\..\source/infrared.c ****     
 112:..\..\source/infrared.c **** }
 371              		.loc 1 112 0 is_stmt 1
 372 00d6 07B0     		add	sp, sp, #28
 373              		@ sp needed
 374 00d8 F0BD     		pop	{r4, r5, r6, r7, pc}
 375              	.L22:
 376 00da C046     		.align	2
 377              	.L21:
 378 00dc 00000000 		.word	.LANCHOR0
 379 00e0 35F8FFFF 		.word	-1995
 380 00e4 34F80000 		.word	63540
 381 00e8 02000000 		.word	.LC10
 382 00ec CB070000 		.word	1995
 383 00f0 00001440 		.word	1075052544
 384 00f4 0000303F 		.word	1060110336
 385 00f8 66666666 		.word	1717986918
 386 00fc 6666F2BF 		.word	-1074633114
 387 0100 5C8FC2F5 		.word	-171798692
 388 0104 28DC3B40 		.word	1077664808
 389 0108 00000000 		.word	formatted_string
 390 010c 00000000 		.word	.LANCHOR1
 391 0110 00000000 		.word	.LC5
 392 0114 34000000 		.word	.LC7
 393              		.cfi_endproc
 394              	.LFE39:
 395              		.size	Infrared_Test, .-Infrared_Test
 396              		.comm	formatted_string,256,4
 397              		.section	.rodata
ARM GAS  C:\Users\Tim\AppData\Local\Temp\cchojxf5.s 			page 10


 398              		.align	2
 399              		.set	.LANCHOR1,. + 0
 400              		.type	__func__.7474, %object
 401              		.size	__func__.7474, 14
 402              	__func__.7474:
 403 0000 496E6672 		.ascii	"Infrared_Test\000"
 403      61726564 
 403      5F546573 
 403      7400
 404 000e 0000     		.section	.rodata.str1.4,"aMS",%progbits,1
 405              		.align	2
 406              	.LC5:
 407 0000 5B46494C 		.ascii	"[FILE : %s, FUNC : %s, LINE : %d]: %d:%d,%d,%d\012\015"
 407      45203A20 
 407      25732C20 
 407      46554E43 
 407      203A2025 
 408 0030 00       		.ascii	"\000"
 409 0031 000000   		.space	3
 410              	.LC7:
 411 0034 2E2E5C2E 		.ascii	"..\\..\\source\\infrared.c\000"
 411      2E5C736F 
 411      75726365 
 411      5C696E66 
 411      72617265 
 412              		.bss
 413              		.align	2
 414              		.set	.LANCHOR0,. + 0
 415              		.type	last_time, %object
 416              		.size	last_time, 4
 417              	last_time:
 418 0000 00000000 		.space	4
 419              		.type	last_time.7473, %object
 420              		.size	last_time.7473, 4
 421              	last_time.7473:
 422 0004 00000000 		.space	4
 423              		.text
 424              	.Letext0:
 425              		.file 2 "c:\\program files (x86)\\cypress\\psoc creator\\3.3\\psoc creator\\import\\gnu\\arm\\4.9.
 426              		.file 3 "Generated_Source\\PSoC4/cytypes.h"
 427              		.file 4 "Generated_Source\\PSoC4/ADC_Infrared.h"
 428              		.file 5 "..\\..\\source\\time.h"
 429              		.file 6 "..\\..\\source\\i2c.h"
 430              		.file 7 "c:\\program files (x86)\\cypress\\psoc creator\\3.3\\psoc creator\\import\\gnu\\arm\\4.9.
 431              		.file 8 "Generated_Source\\PSoC4/UARTCOMMS_SPI_UART.h"
 432              		.file 9 "..\\..\\source\\debug.h"
 433              		.file 10 "c:\\program files (x86)\\cypress\\psoc creator\\3.3\\psoc creator\\import\\gnu\\arm\\4.9