ARM GAS  C:\Users\Tim\AppData\Local\Temp\ccAmOocP.s 			page 1


   1              		.cpu cortex-m0
   2              		.fpu softvfp
   3              		.eabi_attribute 20, 1
   4              		.eabi_attribute 21, 1
   5              		.eabi_attribute 23, 3
   6              		.eabi_attribute 24, 1
   7              		.eabi_attribute 25, 1
   8              		.eabi_attribute 26, 1
   9              		.eabi_attribute 30, 1
  10              		.eabi_attribute 34, 0
  11              		.eabi_attribute 18, 4
  12              		.code	16
  13              		.file	"motor.c"
  14              		.text
  15              	.Ltext0:
  16              		.cfi_sections	.debug_frame
  17              		.section	.rodata.cst1,"aM",%progbits,1
  18              	.LC0:
  19 0000 9C       		.byte	-100
  20              		.section	.text.CalculateCompare,"ax",%progbits
  21              		.align	2
  22              		.code	16
  23              		.thumb_func
  24              		.type	CalculateCompare, %function
  25              	CalculateCompare:
  26              	.LFB36:
  27              		.file 1 "..\\..\\source\\motor.c"
   1:..\..\source/motor.c **** /* ========================================
   2:..\..\source/motor.c ****  *
   3:..\..\source/motor.c ****  * Copyright YOUR COMPANY, THE YEAR
   4:..\..\source/motor.c ****  * All Rights Reserved
   5:..\..\source/motor.c ****  * UNPUBLISHED, LICENSED SOFTWARE.
   6:..\..\source/motor.c ****  *
   7:..\..\source/motor.c ****  * CONFIDENTIAL AND PROPRIETARY INFORMATION
   8:..\..\source/motor.c ****  * WHICH IS THE PROPERTY OF your company.
   9:..\..\source/motor.c ****  *
  10:..\..\source/motor.c ****  * ========================================
  11:..\..\source/motor.c **** */
  12:..\..\source/motor.c **** 
  13:..\..\source/motor.c **** #include "motor.h"
  14:..\..\source/motor.c **** #include "utils.h"
  15:..\..\source/motor.c **** 
  16:..\..\source/motor.c **** /* Add a link to the HB25 data sheet
  17:..\..\source/motor.c ****    Ref:
  18:..\..\source/motor.c ****  */
  19:..\..\source/motor.c **** 
  20:..\..\source/motor.c **** #define HB25_ENABLE_BIT (0)
  21:..\..\source/motor.c **** #define HB25_PWM_BIT (1)
  22:..\..\source/motor.c **** #define HB25_ENABLE (0)
  23:..\..\source/motor.c **** #define HB25_DISABLE (1)
  24:..\..\source/motor.c **** 
  25:..\..\source/motor.c **** #define MIN_PWM_COUNT (800)
  26:..\..\source/motor.c **** #define CNTR_PWM_COUNT (1500)
  27:..\..\source/motor.c **** #define MAX_PWM_COUNT (2200)
  28:..\..\source/motor.c **** 
  29:..\..\source/motor.c **** #define PWM_PADDING (200)
  30:..\..\source/motor.c **** 
ARM GAS  C:\Users\Tim\AppData\Local\Temp\ccAmOocP.s 			page 2


  31:..\..\source/motor.c **** #define REVERSE_PWM_COUNT (MAX_PWM_COUNT - PWM_PADDING)
  32:..\..\source/motor.c **** #define STOP_PWM_COUNT (CNTR_PWM_COUNT)
  33:..\..\source/motor.c **** #define FORWARD_PWM_COUNT (MIN_PWM_COUNT + PWM_PADDING)
  34:..\..\source/motor.c **** 
  35:..\..\source/motor.c **** #define MAX_ABSOLUTE_VALUE (100)
  36:..\..\source/motor.c **** #define MIN_VALUE (-MAX_ABSOLUTE_VALUE)
  37:..\..\source/motor.c **** #define MAX_VALUE (+MAX_ABSOLUTE_VALUE)
  38:..\..\source/motor.c **** #define MID_VALUE (0)
  39:..\..\source/motor.c **** 
  40:..\..\source/motor.c **** #define COUNT_RESOLUTION ((REVERSE_PWM_COUNT - FORWARD_PWM_COUNT)/(2 * MAX_ABSOLUTE_VALUE))
  41:..\..\source/motor.c **** 
  42:..\..\source/motor.c **** static uint16 CalculateCompare(int8 value)
  43:..\..\source/motor.c **** {
  28              		.loc 1 43 0
  29              		.cfi_startproc
  30              	.LVL0:
  44:..\..\source/motor.c ****     
  45:..\..\source/motor.c ****     int16 result = 0;
  46:..\..\source/motor.c ****     
  47:..\..\source/motor.c ****     value = constrain(value, MIN_VALUE, MAX_VALUE);
  31              		.loc 1 47 0
  32 0000 6328     		cmp	r0, #99
  33 0002 06DC     		bgt	.L7
  34              		.loc 1 47 0 is_stmt 0 discriminator 1
  35 0004 031C     		add	r3, r0, #0
  36 0006 6430     		add	r0, r0, #100
  37 0008 01DA     		bge	.L3
  38              	.LVL1:
  39 000a 104B     		ldr	r3, .L11
  40              	.LVL2:
  41 000c 1B78     		ldrb	r3, [r3]
  42              	.L3:
  43 000e 5BB2     		sxtb	r3, r3
  44 0010 00E0     		b	.L2
  45              	.LVL3:
  46              	.L7:
  47              		.loc 1 47 0
  48 0012 6423     		mov	r3, #100
  49              	.LVL4:
  50              	.L2:
  48:..\..\source/motor.c ****     result = (value == 0) ? 0 : (-value * COUNT_RESOLUTION);
  51              		.loc 1 48 0 is_stmt 1 discriminator 4
  52 0014 002B     		cmp	r3, #0
  53 0016 05D0     		beq	.L8
  54              		.loc 1 48 0 is_stmt 0 discriminator 1
  55 0018 9803     		lsl	r0, r3, #14
  56 001a C01A     		sub	r0, r0, r3
  57 001c 8000     		lsl	r0, r0, #2
  58 001e C01A     		sub	r0, r0, r3
  59 0020 80B2     		uxth	r0, r0
  60 0022 00E0     		b	.L4
  61              	.L8:
  62              		.loc 1 48 0
  63 0024 0020     		mov	r0, #0
  64              	.L4:
  65              	.LVL5:
  49:..\..\source/motor.c ****     
ARM GAS  C:\Users\Tim\AppData\Local\Temp\ccAmOocP.s 			page 3


  50:..\..\source/motor.c ****     return (uint16) constrain(STOP_PWM_COUNT + result, MIN_PWM_COUNT, MAX_PWM_COUNT);
  66              		.loc 1 50 0 is_stmt 1 discriminator 4
  67 0026 03B2     		sxth	r3, r0
  68              	.LVL6:
  69 0028 094A     		ldr	r2, .L11+4
  70 002a 9446     		mov	ip, r2
  71 002c 6344     		add	r3, r3, ip
  72 002e 094A     		ldr	r2, .L11+8
  73 0030 9342     		cmp	r3, r2
  74 0032 09DC     		bgt	.L9
  75              		.loc 1 50 0 is_stmt 0 discriminator 1
  76 0034 C822     		mov	r2, #200
  77 0036 9200     		lsl	r2, r2, #2
  78 0038 9342     		cmp	r3, r2
  79 003a 02DD     		ble	.L10
  80              		.loc 1 50 0 discriminator 3
  81 003c 6044     		add	r0, r0, ip
  82              	.LVL7:
  83 003e 80B2     		uxth	r0, r0
  84 0040 03E0     		b	.L5
  85              	.LVL8:
  86              	.L10:
  87              		.loc 1 50 0
  88 0042 C820     		mov	r0, #200
  89              	.LVL9:
  90 0044 8000     		lsl	r0, r0, #2
  91 0046 00E0     		b	.L5
  92              	.LVL10:
  93              	.L9:
  94 0048 0348     		ldr	r0, .L11+12
  95              	.LVL11:
  96              	.L5:
  51:..\..\source/motor.c **** }
  97              		.loc 1 51 0 is_stmt 1 discriminator 8
  98              		@ sp needed
  99 004a 7047     		bx	lr
 100              	.L12:
 101              		.align	2
 102              	.L11:
 103 004c 00000000 		.word	.LC0
 104 0050 DC050000 		.word	1500
 105 0054 97080000 		.word	2199
 106 0058 98080000 		.word	2200
 107              		.cfi_endproc
 108              	.LFE36:
 109              		.size	CalculateCompare, .-CalculateCompare
 110              		.section	.text.Motor_Init,"ax",%progbits
 111              		.align	2
 112              		.global	Motor_Init
 113              		.code	16
 114              		.thumb_func
 115              		.type	Motor_Init, %function
 116              	Motor_Init:
 117              	.LFB37:
  52:..\..\source/motor.c **** 
  53:..\..\source/motor.c **** /*
  54:..\..\source/motor.c ****     Recommendation by Parallax:
ARM GAS  C:\Users\Tim\AppData\Local\Temp\ccAmOocP.s 			page 4


  55:..\..\source/motor.c **** 
  56:..\..\source/motor.c ****     Safe Power-Up and Power-Down
  57:..\..\source/motor.c ****     Remember, because the HB-25 responds to pulses like a servo, changing states on your microcontr
  58:..\..\source/motor.c ****     I/O pins at startup and shutdown can affect the HB-25 and set it into an unintended state. This
  59:..\..\source/motor.c ****     the I/O pins changing between input and output as well as between output high and output low.
  60:..\..\source/motor.c ****     If your microcontroller is powered up or powered down while the HB-25 is powered up, the
  61:..\..\source/motor.c ****     HB-25 could receive a false trigger. To prevent this, use one of the following options:
  62:..\..\source/motor.c ****     • Most reliable option:
  63:..\..\source/motor.c ****     1. Power the microcontroller up first, using code that forces the program to wait until the
  64:..\..\source/motor.c ****     HB-25 is powered up before sending pulses. Code examples are provided below.
  65:..\..\source/motor.c ****     2. Power up the HB-25 for operation.
  66:..\..\source/motor.c ****     3. When shutting down your application, cut off power to the HB-25 first.
  67:..\..\source/motor.c ****     4. Power down your microcontroller last.
  68:..\..\source/motor.c ****     • Or, power the HB-25 and the microcontroller at the same time using a double-post (dual-circ
  69:..\..\source/motor.c ****     switch.
  70:..\..\source/motor.c ****     • If there is the possibility that the HB-25 will be on before your microcontroller, use the 
  71:..\..\source/motor.c ****     code as mentioned above to ensure that the HB-25 is properly initialized when the
  72:..\..\source/motor.c ****     microcontroller is powered on. The I/O line connected to the HB-25 should be made LOW either
  73:..\..\source/motor.c ****     before or immediately after the HB-25 powers up. If this does not happen the HB-25 may fail to
  74:..\..\source/motor.c ****     respond to incoming pulses.
  75:..\..\source/motor.c ****     If your application poses any potential safety risk and you need the HB-25 to shut off the moto
  76:..\..\source/motor.c ****     the microcontroller has lost power or has malfunctioned, enable the Timeout Feature described b
  77:..\..\source/motor.c ****     before operation.
  78:..\..\source/motor.c **** 
  79:..\..\source/motor.c ****  */
  80:..\..\source/motor.c **** 
  81:..\..\source/motor.c **** void Motor_Init()
  82:..\..\source/motor.c **** {
 118              		.loc 1 82 0
 119              		.cfi_startproc
 120 0000 08B5     		push	{r3, lr}
 121              		.cfi_def_cfa_offset 8
 122              		.cfi_offset 3, -8
 123              		.cfi_offset 14, -4
  83:..\..\source/motor.c ****     HB25_Enable_Pin_Write(HB25_DISABLE);
 124              		.loc 1 83 0
 125 0002 0120     		mov	r0, #1
 126 0004 FFF7FEFF 		bl	HB25_Enable_Pin_Write
 127              	.LVL12:
  84:..\..\source/motor.c **** }
 128              		.loc 1 84 0
 129              		@ sp needed
 130 0008 08BD     		pop	{r3, pc}
 131              		.cfi_endproc
 132              	.LFE37:
 133              		.size	Motor_Init, .-Motor_Init
 134 000a C046     		.section	.text.Motor_Start,"ax",%progbits
 135              		.align	2
 136              		.global	Motor_Start
 137              		.code	16
 138              		.thumb_func
 139              		.type	Motor_Start, %function
 140              	Motor_Start:
 141              	.LFB38:
  85:..\..\source/motor.c **** 
  86:..\..\source/motor.c **** void Motor_Start()
  87:..\..\source/motor.c **** {
ARM GAS  C:\Users\Tim\AppData\Local\Temp\ccAmOocP.s 			page 5


 142              		.loc 1 87 0
 143              		.cfi_startproc
 144 0000 08B5     		push	{r3, lr}
 145              		.cfi_def_cfa_offset 8
 146              		.cfi_offset 3, -8
 147              		.cfi_offset 14, -4
  88:..\..\source/motor.c ****     /* Enable the power on the HB-25 motor 
  89:..\..\source/motor.c ****        Note: The HB-25 has a specific initialization sequence that is handled in hardware.  All tha
  90:..\..\source/motor.c ****        software is to enable power to the HB-25 motor controller and start the PWM.  The PWM will b
  91:..\..\source/motor.c ****        HB-25 signal pin when initialization completes.
  92:..\..\source/motor.c ****      */
  93:..\..\source/motor.c ****     HB25_Enable_Pin_Write(HB25_ENABLE);    
 148              		.loc 1 93 0
 149 0002 0020     		mov	r0, #0
 150 0004 FFF7FEFF 		bl	HB25_Enable_Pin_Write
 151              	.LVL13:
  94:..\..\source/motor.c ****     HB25_PWM_Start();
 152              		.loc 1 94 0
 153 0008 FFF7FEFF 		bl	HB25_PWM_Start
 154              	.LVL14:
  95:..\..\source/motor.c **** }
 155              		.loc 1 95 0
 156              		@ sp needed
 157 000c 08BD     		pop	{r3, pc}
 158              		.cfi_endproc
 159              	.LFE38:
 160              		.size	Motor_Start, .-Motor_Start
 161 000e C046     		.section	.text.Motor_SetOutput,"ax",%progbits
 162              		.align	2
 163              		.global	Motor_SetOutput
 164              		.code	16
 165              		.thumb_func
 166              		.type	Motor_SetOutput, %function
 167              	Motor_SetOutput:
 168              	.LFB39:
  96:..\..\source/motor.c **** 
  97:..\..\source/motor.c **** void Motor_SetOutput(int8 value)
  98:..\..\source/motor.c **** {
 169              		.loc 1 98 0
 170              		.cfi_startproc
 171              	.LVL15:
 172 0000 08B5     		push	{r3, lr}
 173              		.cfi_def_cfa_offset 8
 174              		.cfi_offset 3, -8
 175              		.cfi_offset 14, -4
 176              	.LVL16:
  99:..\..\source/motor.c ****     uint16 pwm_compare = 0;
 100:..\..\source/motor.c ****     
 101:..\..\source/motor.c ****     pwm_compare = CalculateCompare(value);
 177              		.loc 1 101 0
 178 0002 FFF7FEFF 		bl	CalculateCompare
 179              	.LVL17:
 102:..\..\source/motor.c ****     HB25_PWM_WriteCompare(pwm_compare);
 180              		.loc 1 102 0
 181 0006 FFF7FEFF 		bl	HB25_PWM_WriteCompare
 182              	.LVL18:
 103:..\..\source/motor.c **** }
ARM GAS  C:\Users\Tim\AppData\Local\Temp\ccAmOocP.s 			page 6


 183              		.loc 1 103 0
 184              		@ sp needed
 185 000a 08BD     		pop	{r3, pc}
 186              		.cfi_endproc
 187              	.LFE39:
 188              		.size	Motor_SetOutput, .-Motor_SetOutput
 189              		.section	.text.Motor_Stop,"ax",%progbits
 190              		.align	2
 191              		.global	Motor_Stop
 192              		.code	16
 193              		.thumb_func
 194              		.type	Motor_Stop, %function
 195              	Motor_Stop:
 196              	.LFB40:
 104:..\..\source/motor.c **** 
 105:..\..\source/motor.c **** void Motor_Stop()
 106:..\..\source/motor.c **** {
 197              		.loc 1 106 0
 198              		.cfi_startproc
 199 0000 08B5     		push	{r3, lr}
 200              		.cfi_def_cfa_offset 8
 201              		.cfi_offset 3, -8
 202              		.cfi_offset 14, -4
 107:..\..\source/motor.c ****     /* Reverse sequence to start:
 108:..\..\source/motor.c ****         - Stop the PWM
 109:..\..\source/motor.c ****         - Disable power to the HB-25
 110:..\..\source/motor.c ****      */
 111:..\..\source/motor.c ****     HB25_PWM_Stop();
 203              		.loc 1 111 0
 204 0002 FFF7FEFF 		bl	HB25_PWM_Stop
 205              	.LVL19:
 112:..\..\source/motor.c ****     HB25_Enable_Pin_Write(HB25_DISABLE);
 206              		.loc 1 112 0
 207 0006 0120     		mov	r0, #1
 208 0008 FFF7FEFF 		bl	HB25_Enable_Pin_Write
 209              	.LVL20:
 113:..\..\source/motor.c **** }
 210              		.loc 1 113 0
 211              		@ sp needed
 212 000c 08BD     		pop	{r3, pc}
 213              		.cfi_endproc
 214              	.LFE40:
 215              		.size	Motor_Stop, .-Motor_Stop
 216 000e C046     		.section	.text.Motor_Test,"ax",%progbits
 217              		.align	2
 218              		.global	Motor_Test
 219              		.code	16
 220              		.thumb_func
 221              		.type	Motor_Test, %function
 222              	Motor_Test:
 223              	.LFB41:
 114:..\..\source/motor.c **** 
 115:..\..\source/motor.c **** void Motor_Test()
 116:..\..\source/motor.c **** {
 224              		.loc 1 116 0
 225              		.cfi_startproc
 117:..\..\source/motor.c **** }
ARM GAS  C:\Users\Tim\AppData\Local\Temp\ccAmOocP.s 			page 7


 226              		.loc 1 117 0
 227              		@ sp needed
 228 0000 7047     		bx	lr
 229              		.cfi_endproc
 230              	.LFE41:
 231              		.size	Motor_Test, .-Motor_Test
 232 0002 C046     		.text
 233              	.Letext0:
 234              		.file 2 "Generated_Source\\PSoC4/cytypes.h"
 235              		.file 3 "Generated_Source\\PSoC4/HB25_Enable_Pin.h"
 236              		.file 4 "Generated_Source\\PSoC4/HB25_PWM.h"