ARM GAS  C:\Users\Tim\AppData\Local\Temp\ccg0tb5Y.s 			page 1


   1              		.cpu cortex-m0
   2              		.fpu softvfp
   3              		.eabi_attribute 20, 1
   4              		.eabi_attribute 21, 1
   5              		.eabi_attribute 23, 3
   6              		.eabi_attribute 24, 1
   7              		.eabi_attribute 25, 1
   8              		.eabi_attribute 26, 1
   9              		.eabi_attribute 30, 1
  10              		.eabi_attribute 34, 0
  11              		.eabi_attribute 18, 4
  12              		.code	16
  13              		.file	"pid.c"
  14              		.text
  15              	.Ltext0:
  16              		.cfi_sections	.debug_frame
  17              		.global	__aeabi_idiv
  18              		.global	__aeabi_i2f
  19              		.global	__aeabi_f2d
  20              		.global	__aeabi_fsub
  21              		.global	__aeabi_dcmpgt
  22              		.global	__aeabi_fadd
  23              		.global	__aeabi_fmul
  24              		.global	__aeabi_fcmpgt
  25              		.global	__aeabi_fcmplt
  26              		.global	__aeabi_f2iz
  27              		.section	.text.Calculate,"ax",%progbits
  28              		.align	2
  29              		.code	16
  30              		.thumb_func
  31              		.type	Calculate, %function
  32              	Calculate:
  33              	.LFB36:
  34              		.file 1 "..\\..\\source\\pid.c"
   1:..\..\source/pid.c **** /* ========================================
   2:..\..\source/pid.c ****  *
   3:..\..\source/pid.c ****  * Copyright YOUR COMPANY, THE YEAR
   4:..\..\source/pid.c ****  * All Rights Reserved
   5:..\..\source/pid.c ****  * UNPUBLISHED, LICENSED SOFTWARE.
   6:..\..\source/pid.c ****  *
   7:..\..\source/pid.c ****  * CONFIDENTIAL AND PROPRIETARY INFORMATION
   8:..\..\source/pid.c ****  * WHICH IS THE PROPERTY OF your company.
   9:..\..\source/pid.c ****  *
  10:..\..\source/pid.c ****  * ========================================
  11:..\..\source/pid.c **** */
  12:..\..\source/pid.c **** 
  13:..\..\source/pid.c **** #include <math.h>
  14:..\..\source/pid.c **** #include "pid.h"
  15:..\..\source/pid.c **** #include "encoder.h"
  16:..\..\source/pid.c **** #include "motor.h"
  17:..\..\source/pid.c **** #include "i2c.h"
  18:..\..\source/pid.c **** #include "utils.h"
  19:..\..\source/pid.c **** #include "debug.h"
  20:..\..\source/pid.c **** #include "time.h"
  21:..\..\source/pid.c **** 
  22:..\..\source/pid.c **** #define SAMPLE_RATE (20) // Hz
  23:..\..\source/pid.c **** #define SAMPLE_PERIOD (1000/SAMPLE_RATE) /* milliseconds */
ARM GAS  C:\Users\Tim\AppData\Local\Temp\ccg0tb5Y.s 			page 2


  24:..\..\source/pid.c **** 
  25:..\..\source/pid.c **** #define MIN_KP (0)
  26:..\..\source/pid.c **** #define MAX_KP (1)
  27:..\..\source/pid.c **** #define MIN_KI (0)
  28:..\..\source/pid.c **** #define MAX_KI (1)
  29:..\..\source/pid.c **** #define MIN_KD (0)
  30:..\..\source/pid.c **** #define MAX_KD (1)
  31:..\..\source/pid.c **** #define MIN_SAMPLE_RATE (0)
  32:..\..\source/pid.c **** #define MAX_SAMPLE_RATE (1)
  33:..\..\source/pid.c **** 
  34:..\..\source/pid.c **** #define DEFAULT_KP (5.0)
  35:..\..\source/pid.c **** #define DEFAULT_KI (0.1)
  36:..\..\source/pid.c **** #define DEFAULT_KD (0.01)
  37:..\..\source/pid.c **** 
  38:..\..\source/pid.c **** #define MAX_VELOCITY (1500)
  39:..\..\source/pid.c **** #define MIN_ERROR (0.001)
  40:..\..\source/pid.c **** 
  41:..\..\source/pid.c **** static float Kp;
  42:..\..\source/pid.c **** static float Ki;
  43:..\..\source/pid.c **** static float Kd;
  44:..\..\source/pid.c **** 
  45:..\..\source/pid.c **** /*---------------------------------*/
  46:..\..\source/pid.c **** 
  47:..\..\source/pid.c **** 
  48:..\..\source/pid.c **** static int8 Calculate(int16 set_velocity, int16 calc_velocity)
  49:..\..\source/pid.c **** {
  35              		.loc 1 49 0
  36              		.cfi_startproc
  37              	.LVL0:
  38 0000 F0B5     		push	{r4, r5, r6, r7, lr}
  39              		.cfi_def_cfa_offset 20
  40              		.cfi_offset 4, -20
  41              		.cfi_offset 5, -16
  42              		.cfi_offset 6, -12
  43              		.cfi_offset 7, -8
  44              		.cfi_offset 14, -4
  45 0002 8DB0     		sub	sp, sp, #52
  46              		.cfi_def_cfa_offset 72
  47 0004 061C     		mov	r6, r0
  48 0006 0F1C     		mov	r7, r1
  50:..\..\source/pid.c ****     static float prev_error = 0;
  51:..\..\source/pid.c ****     static float integral = 0;
  52:..\..\source/pid.c ****     float scaled_calc_velocity;
  53:..\..\source/pid.c ****     float scaled_set_velocity;
  54:..\..\source/pid.c ****     float error;
  55:..\..\source/pid.c ****     float derivative;
  56:..\..\source/pid.c ****     float output;
  57:..\..\source/pid.c ****     int8 scaled_output;
  58:..\..\source/pid.c ****     
  59:..\..\source/pid.c ****     scaled_calc_velocity = calc_velocity/MAX_VELOCITY; //scale(calc_velocity, 100, 15000);
  49              		.loc 1 59 0
  50 0008 081C     		mov	r0, r1
  51              	.LVL1:
  52 000a 4249     		ldr	r1, .L18
  53              	.LVL2:
  54 000c FFF7FEFF 		bl	__aeabi_idiv
  55              	.LVL3:
ARM GAS  C:\Users\Tim\AppData\Local\Temp\ccg0tb5Y.s 			page 3


  56 0010 00B2     		sxth	r0, r0
  57 0012 FFF7FEFF 		bl	__aeabi_i2f
  58              	.LVL4:
  59 0016 0B90     		str	r0, [sp, #44]
  60              	.LVL5:
  60:..\..\source/pid.c ****     scaled_set_velocity = set_velocity/MAX_VELOCITY; //scale(set_velocity, 100, 15000);
  61              		.loc 1 60 0
  62 0018 301C     		mov	r0, r6
  63              	.LVL6:
  64 001a 3E49     		ldr	r1, .L18
  65 001c FFF7FEFF 		bl	__aeabi_idiv
  66              	.LVL7:
  67 0020 00B2     		sxth	r0, r0
  68 0022 FFF7FEFF 		bl	__aeabi_i2f
  69              	.LVL8:
  70 0026 041C     		add	r4, r0, #0
  71              	.LVL9:
  61:..\..\source/pid.c ****     
  62:..\..\source/pid.c ****     COMMS_DEBUG_PRINT(0, "CV: %d, SCV: %f, SV: %d, SSV: %f\n\r", calc_velocity, scaled_calc_velocit
  72              		.loc 1 62 0
  73 0028 3B4D     		ldr	r5, .L18+4
  74 002a 3C4B     		ldr	r3, .L18+8
  75 002c 0093     		str	r3, [sp]
  76 002e 3E23     		mov	r3, #62
  77 0030 0193     		str	r3, [sp, #4]
  78 0032 0297     		str	r7, [sp, #8]
  79 0034 0B9F     		ldr	r7, [sp, #44]
  80 0036 381C     		add	r0, r7, #0
  81              	.LVL10:
  82 0038 FFF7FEFF 		bl	__aeabi_f2d
  83              	.LVL11:
  84 003c 0490     		str	r0, [sp, #16]
  85 003e 0591     		str	r1, [sp, #20]
  86 0040 0696     		str	r6, [sp, #24]
  87 0042 201C     		add	r0, r4, #0
  88 0044 FFF7FEFF 		bl	__aeabi_f2d
  89              	.LVL12:
  90 0048 0890     		str	r0, [sp, #32]
  91 004a 0991     		str	r1, [sp, #36]
  92 004c 281C     		mov	r0, r5
  93 004e 8021     		mov	r1, #128
  94 0050 4900     		lsl	r1, r1, #1
  95 0052 334A     		ldr	r2, .L18+12
  96 0054 334B     		ldr	r3, .L18+16
  97 0056 FFF7FEFF 		bl	snprintf
  98              	.LVL13:
  99 005a 281C     		mov	r0, r5
 100 005c FFF7FEFF 		bl	UARTCOMMS_UartPutString
 101              	.LVL14:
  63:..\..\source/pid.c **** 
  64:..\..\source/pid.c ****     error = scaled_set_velocity - scaled_calc_velocity;
 102              		.loc 1 64 0
 103 0060 201C     		add	r0, r4, #0
 104 0062 391C     		add	r1, r7, #0
 105 0064 FFF7FEFF 		bl	__aeabi_fsub
 106              	.LVL15:
 107 0068 051C     		add	r5, r0, #0
ARM GAS  C:\Users\Tim\AppData\Local\Temp\ccg0tb5Y.s 			page 4


 108              	.LVL16:
  65:..\..\source/pid.c **** 
  66:..\..\source/pid.c ****     if( fabs(error) > MIN_ERROR )
 109              		.loc 1 66 0
 110 006a 4000     		lsl	r0, r0, #1
 111              	.LVL17:
 112 006c 4008     		lsr	r0, r0, #1
 113 006e FFF7FEFF 		bl	__aeabi_f2d
 114              	.LVL18:
 115 0072 2D4A     		ldr	r2, .L18+20
 116 0074 2D4B     		ldr	r3, .L18+24
 117 0076 FFF7FEFF 		bl	__aeabi_dcmpgt
 118              	.LVL19:
 119 007a 0028     		cmp	r0, #0
 120 007c 05D0     		beq	.L2
  67:..\..\source/pid.c ****     {
  68:..\..\source/pid.c ****         integral = integral + error;
 121              		.loc 1 68 0
 122 007e 2C4C     		ldr	r4, .L18+28
 123              	.LVL20:
 124 0080 281C     		add	r0, r5, #0
 125 0082 2168     		ldr	r1, [r4]
 126 0084 FFF7FEFF 		bl	__aeabi_fadd
 127              	.LVL21:
 128 0088 2060     		str	r0, [r4]
 129              	.L2:
  69:..\..\source/pid.c ****     }
  70:..\..\source/pid.c **** 
  71:..\..\source/pid.c ****     derivative = (error - prev_error);
 130              		.loc 1 71 0
 131 008a 294C     		ldr	r4, .L18+28
 132 008c 281C     		add	r0, r5, #0
 133 008e 6168     		ldr	r1, [r4, #4]
 134 0090 FFF7FEFF 		bl	__aeabi_fsub
 135              	.LVL22:
 136 0094 071C     		add	r7, r0, #0
 137              	.LVL23:
  72:..\..\source/pid.c ****     output = Kp * error + Ki * integral + Kd * derivative;
 138              		.loc 1 72 0
 139 0096 281C     		add	r0, r5, #0
 140              	.LVL24:
 141 0098 A168     		ldr	r1, [r4, #8]
 142 009a FFF7FEFF 		bl	__aeabi_fmul
 143              	.LVL25:
 144 009e 061C     		add	r6, r0, #0
 145 00a0 E068     		ldr	r0, [r4, #12]
 146 00a2 2168     		ldr	r1, [r4]
 147 00a4 FFF7FEFF 		bl	__aeabi_fmul
 148              	.LVL26:
 149 00a8 011C     		add	r1, r0, #0
 150 00aa 301C     		add	r0, r6, #0
 151 00ac FFF7FEFF 		bl	__aeabi_fadd
 152              	.LVL27:
 153 00b0 061C     		add	r6, r0, #0
 154 00b2 381C     		add	r0, r7, #0
 155 00b4 2169     		ldr	r1, [r4, #16]
 156 00b6 FFF7FEFF 		bl	__aeabi_fmul
ARM GAS  C:\Users\Tim\AppData\Local\Temp\ccg0tb5Y.s 			page 5


 157              	.LVL28:
 158 00ba 011C     		add	r1, r0, #0
 159 00bc 301C     		add	r0, r6, #0
 160 00be FFF7FEFF 		bl	__aeabi_fadd
 161              	.LVL29:
  73:..\..\source/pid.c ****     
  74:..\..\source/pid.c ****     scaled_output = (int8) constrain((output * 100), -100, 100);//constrain(output, -100, 100);
 162              		.loc 1 74 0
 163 00c2 1C49     		ldr	r1, .L18+32
 164 00c4 FFF7FEFF 		bl	__aeabi_fmul
 165              	.LVL30:
 166 00c8 061C     		add	r6, r0, #0
 167 00ca 1B49     		ldr	r1, .L18+36
 168 00cc FFF7FEFF 		bl	__aeabi_fcmpgt
 169              	.LVL31:
 170 00d0 0028     		cmp	r0, #0
 171 00d2 09D0     		beq	.L16
 172              		.loc 1 74 0 is_stmt 0 discriminator 1
 173 00d4 0124     		mov	r4, #1
 174 00d6 301C     		add	r0, r6, #0
 175 00d8 1649     		ldr	r1, .L18+32
 176 00da FFF7FEFF 		bl	__aeabi_fcmplt
 177              	.LVL32:
 178 00de 0028     		cmp	r0, #0
 179 00e0 00D1     		bne	.L6
 180 00e2 0024     		mov	r4, #0
 181              	.L6:
 182 00e4 E3B2     		uxtb	r3, r4
 183 00e6 00E0     		b	.L4
 184              	.L16:
 185              		.loc 1 74 0
 186 00e8 0123     		mov	r3, #1
 187              	.L4:
 188              		.loc 1 74 0 discriminator 4
 189 00ea 002B     		cmp	r3, #0
 190 00ec 0CD0     		beq	.L11
 191              		.loc 1 74 0 discriminator 5
 192 00ee 301C     		add	r0, r6, #0
 193 00f0 1149     		ldr	r1, .L18+36
 194 00f2 FFF7FEFF 		bl	__aeabi_fcmpgt
 195              	.LVL33:
 196 00f6 0028     		cmp	r0, #0
 197 00f8 04D0     		beq	.L17
 198              		.loc 1 74 0 discriminator 7
 199 00fa 301C     		add	r0, r6, #0
 200 00fc FFF7FEFF 		bl	__aeabi_f2iz
 201              	.LVL34:
 202 0100 C0B2     		uxtb	r0, r0
 203 0102 02E0     		b	.L7
 204              	.L17:
 205              		.loc 1 74 0
 206 0104 9C20     		mov	r0, #156
 207 0106 00E0     		b	.L7
 208              	.L11:
 209 0108 6420     		mov	r0, #100
 210              	.L7:
 211              	.LVL35:
ARM GAS  C:\Users\Tim\AppData\Local\Temp\ccg0tb5Y.s 			page 6


  75:..\..\source/pid.c ****     
  76:..\..\source/pid.c ****     prev_error = error;
 212              		.loc 1 76 0 is_stmt 1 discriminator 12
 213 010a 094B     		ldr	r3, .L18+28
 214 010c 5D60     		str	r5, [r3, #4]
  77:..\..\source/pid.c ****     
  78:..\..\source/pid.c ****     return scaled_output;
 215              		.loc 1 78 0 discriminator 12
 216 010e 40B2     		sxtb	r0, r0
  79:..\..\source/pid.c **** }
 217              		.loc 1 79 0 discriminator 12
 218 0110 0DB0     		add	sp, sp, #52
 219              		@ sp needed
 220              	.LVL36:
 221              	.LVL37:
 222 0112 F0BD     		pop	{r4, r5, r6, r7, pc}
 223              	.L19:
 224              		.align	2
 225              	.L18:
 226 0114 DC050000 		.word	1500
 227 0118 00000000 		.word	formatted_string
 228 011c 00000000 		.word	.LANCHOR0
 229 0120 00000000 		.word	.LC1
 230 0124 48000000 		.word	.LC3
 231 0128 FCA9F1D2 		.word	-755914244
 232 012c 4D62503F 		.word	1062232653
 233 0130 00000000 		.word	.LANCHOR1
 234 0134 0000C842 		.word	1120403456
 235 0138 0000C8C2 		.word	-1027080192
 236              		.cfi_endproc
 237              	.LFE36:
 238              		.size	Calculate, .-Calculate
 239              		.section	.text.PID_Init,"ax",%progbits
 240              		.align	2
 241              		.global	PID_Init
 242              		.code	16
 243              		.thumb_func
 244              		.type	PID_Init, %function
 245              	PID_Init:
 246              	.LFB37:
  80:..\..\source/pid.c ****     
  81:..\..\source/pid.c **** void PID_Init(float p, float i, float d, uint8 sample_rate)
  82:..\..\source/pid.c **** {
 247              		.loc 1 82 0
 248              		.cfi_startproc
 249              	.LVL38:
  83:..\..\source/pid.c ****     Kp = p;
 250              		.loc 1 83 0
 251 0000 024B     		ldr	r3, .L21
 252              	.LVL39:
 253 0002 9860     		str	r0, [r3, #8]
  84:..\..\source/pid.c ****     Ki = i;
 254              		.loc 1 84 0
 255 0004 D960     		str	r1, [r3, #12]
  85:..\..\source/pid.c ****     Kd = d;
 256              		.loc 1 85 0
 257 0006 1A61     		str	r2, [r3, #16]
ARM GAS  C:\Users\Tim\AppData\Local\Temp\ccg0tb5Y.s 			page 7


 258              	.LVL40:
  86:..\..\source/pid.c ****     sample_rate = constrain(sample_rate, MIN_SAMPLE_RATE, MAX_SAMPLE_RATE);
  87:..\..\source/pid.c **** }
 259              		.loc 1 87 0
 260              		@ sp needed
 261 0008 7047     		bx	lr
 262              	.L22:
 263 000a C046     		.align	2
 264              	.L21:
 265 000c 00000000 		.word	.LANCHOR1
 266              		.cfi_endproc
 267              	.LFE37:
 268              		.size	PID_Init, .-PID_Init
 269              		.section	.text.PID_Start,"ax",%progbits
 270              		.align	2
 271              		.global	PID_Start
 272              		.code	16
 273              		.thumb_func
 274              		.type	PID_Start, %function
 275              	PID_Start:
 276              	.LFB38:
  88:..\..\source/pid.c **** 
  89:..\..\source/pid.c **** void PID_Start()
  90:..\..\source/pid.c **** {
 277              		.loc 1 90 0
 278              		.cfi_startproc
  91:..\..\source/pid.c ****     Kp = DEFAULT_KP;
 279              		.loc 1 91 0
 280 0000 034B     		ldr	r3, .L24
 281 0002 044A     		ldr	r2, .L24+4
 282 0004 9A60     		str	r2, [r3, #8]
  92:..\..\source/pid.c ****     Ki = DEFAULT_KI;
 283              		.loc 1 92 0
 284 0006 044A     		ldr	r2, .L24+8
 285 0008 DA60     		str	r2, [r3, #12]
  93:..\..\source/pid.c ****     Kd = DEFAULT_KD;
 286              		.loc 1 93 0
 287 000a 044A     		ldr	r2, .L24+12
 288 000c 1A61     		str	r2, [r3, #16]
  94:..\..\source/pid.c **** }
 289              		.loc 1 94 0
 290              		@ sp needed
 291 000e 7047     		bx	lr
 292              	.L25:
 293              		.align	2
 294              	.L24:
 295 0010 00000000 		.word	.LANCHOR1
 296 0014 0000A040 		.word	1084227584
 297 0018 CDCCCC3D 		.word	1036831949
 298 001c 0AD7233C 		.word	1008981770
 299              		.cfi_endproc
 300              	.LFE38:
 301              		.size	PID_Start, .-PID_Start
 302              		.section	.text.PID_Update,"ax",%progbits
 303              		.align	2
 304              		.global	PID_Update
 305              		.code	16
ARM GAS  C:\Users\Tim\AppData\Local\Temp\ccg0tb5Y.s 			page 8


 306              		.thumb_func
 307              		.type	PID_Update, %function
 308              	PID_Update:
 309              	.LFB39:
  95:..\..\source/pid.c **** 
  96:..\..\source/pid.c **** void PID_Update(int16 velocity)
  97:..\..\source/pid.c **** {
 310              		.loc 1 97 0
 311              		.cfi_startproc
 312              	.LVL41:
 313 0000 10B5     		push	{r4, lr}
 314              		.cfi_def_cfa_offset 8
 315              		.cfi_offset 4, -8
 316              		.cfi_offset 14, -4
 317 0002 041C     		mov	r4, r0
  98:..\..\source/pid.c ****     static uint32 last_time = 0;
  99:..\..\source/pid.c ****     int16 calc_velocity;
 100:..\..\source/pid.c ****     int8 new_set_velocity;
 101:..\..\source/pid.c ****     
 102:..\..\source/pid.c ****     if (DELTA_TIME(millis(), last_time, SAMPLE_PERIOD))
 318              		.loc 1 102 0
 319 0004 FFF7FEFF 		bl	millis
 320              	.LVL42:
 321 0008 084B     		ldr	r3, .L28
 322 000a 5B69     		ldr	r3, [r3, #20]
 323 000c C01A     		sub	r0, r0, r3
 324 000e 3228     		cmp	r0, #50
 325 0010 0BD9     		bls	.L26
 103:..\..\source/pid.c ****     {    
 104:..\..\source/pid.c ****         last_time = millis();
 326              		.loc 1 104 0
 327 0012 FFF7FEFF 		bl	millis
 328              	.LVL43:
 329 0016 054B     		ldr	r3, .L28
 330 0018 5861     		str	r0, [r3, #20]
 105:..\..\source/pid.c ****         
 106:..\..\source/pid.c ****         calc_velocity = Encoder_GetVelocity();
 331              		.loc 1 106 0
 332 001a FFF7FEFF 		bl	Encoder_GetVelocity
 333              	.LVL44:
 334 001e 011C     		mov	r1, r0
 335              	.LVL45:
 107:..\..\source/pid.c ****         new_set_velocity = Calculate(velocity, calc_velocity);
 336              		.loc 1 107 0
 337 0020 201C     		mov	r0, r4
 338 0022 FFF7FEFF 		bl	Calculate
 339              	.LVL46:
 108:..\..\source/pid.c ****         Motor_SetOutput(new_set_velocity);
 340              		.loc 1 108 0
 341 0026 FFF7FEFF 		bl	Motor_SetOutput
 342              	.LVL47:
 343              	.L26:
 109:..\..\source/pid.c ****     }
 110:..\..\source/pid.c **** }
 344              		.loc 1 110 0
 345              		@ sp needed
 346 002a 10BD     		pop	{r4, pc}
ARM GAS  C:\Users\Tim\AppData\Local\Temp\ccg0tb5Y.s 			page 9


 347              	.L29:
 348              		.align	2
 349              	.L28:
 350 002c 00000000 		.word	.LANCHOR1
 351              		.cfi_endproc
 352              	.LFE39:
 353              		.size	PID_Update, .-PID_Update
 354              		.comm	formatted_string,256,4
 355              		.section	.rodata
 356              		.align	2
 357              		.set	.LANCHOR0,. + 0
 358              		.type	__func__.7484, %object
 359              		.size	__func__.7484, 10
 360              	__func__.7484:
 361 0000 43616C63 		.ascii	"Calculate\000"
 361      756C6174 
 361      6500
 362 000a 0000     		.section	.rodata.str1.4,"aMS",%progbits,1
 363              		.align	2
 364              	.LC1:
 365 0000 5B46494C 		.ascii	"[FILE : %s, FUNC : %s, LINE : %d]: CV: %d, SCV: %f,"
 365      45203A20 
 365      25732C20 
 365      46554E43 
 365      203A2025 
 366 0033 2053563A 		.ascii	" SV: %d, SSV: %f\012\015\000"
 366      2025642C 
 366      20535356 
 366      3A202566 
 366      0A0D00
 367 0046 0000     		.space	2
 368              	.LC3:
 369 0048 2E2E5C2E 		.ascii	"..\\..\\source\\pid.c\000"
 369      2E5C736F 
 369      75726365 
 369      5C706964 
 369      2E6300
 370 005b 00       		.bss
 371              		.align	2
 372              		.set	.LANCHOR1,. + 0
 373              		.type	integral.7477, %object
 374              		.size	integral.7477, 4
 375              	integral.7477:
 376 0000 00000000 		.space	4
 377              		.type	prev_error.7476, %object
 378              		.size	prev_error.7476, 4
 379              	prev_error.7476:
 380 0004 00000000 		.space	4
 381              		.type	Kp, %object
 382              		.size	Kp, 4
 383              	Kp:
 384 0008 00000000 		.space	4
 385              		.type	Ki, %object
 386              		.size	Ki, 4
 387              	Ki:
 388 000c 00000000 		.space	4
 389              		.type	Kd, %object
ARM GAS  C:\Users\Tim\AppData\Local\Temp\ccg0tb5Y.s 			page 10


 390              		.size	Kd, 4
 391              	Kd:
 392 0010 00000000 		.space	4
 393              		.type	last_time.7496, %object
 394              		.size	last_time.7496, 4
 395              	last_time.7496:
 396 0014 00000000 		.space	4
 397              		.text
 398              	.Letext0:
 399              		.file 2 "c:\\program files (x86)\\cypress\\psoc creator\\3.3\\psoc creator\\import\\gnu\\arm\\4.9.
 400              		.file 3 "Generated_Source\\PSoC4/cytypes.h"
 401              		.file 4 "Generated_Source\\PSoC4/UARTCOMMS_SPI_UART.h"
 402              		.file 5 "..\\..\\source\\time.h"
 403              		.file 6 "..\\..\\source\\encoder.h"
 404              		.file 7 "..\\..\\source\\debug.h"
 405              		.file 8 "c:\\program files (x86)\\cypress\\psoc creator\\3.3\\psoc creator\\import\\gnu\\arm\\4.9.
 406              		.file 9 "..\\..\\source\\motor.h"